
hello.out:     file format elf64-littleaarch64


Disassembly of section .init:

0000000000400258 <_init>:
  400258:	d503201f 	nop
  40025c:	a9bf7bfd 	stp	x29, x30, [sp, #-16]!
  400260:	910003fd 	mov	x29, sp
  400264:	940000b6 	bl	40053c <call_weak_fn>
  400268:	a8c17bfd 	ldp	x29, x30, [sp], #16
  40026c:	d65f03c0 	ret

Disassembly of section .plt:

0000000000400270 <.plt>:
  400270:	90000470 	adrp	x16, 48c000 <.got.plt+0x18>
  400274:	f9400211 	ldr	x17, [x16]
  400278:	91000210 	add	x16, x16, #0x0
  40027c:	d61f0220 	br	x17
  400280:	90000470 	adrp	x16, 48c000 <.got.plt+0x18>
  400284:	f9400611 	ldr	x17, [x16, #8]
  400288:	91002210 	add	x16, x16, #0x8
  40028c:	d61f0220 	br	x17
  400290:	90000470 	adrp	x16, 48c000 <.got.plt+0x18>
  400294:	f9400a11 	ldr	x17, [x16, #16]
  400298:	91004210 	add	x16, x16, #0x10
  40029c:	d61f0220 	br	x17
  4002a0:	90000470 	adrp	x16, 48c000 <.got.plt+0x18>
  4002a4:	f9400e11 	ldr	x17, [x16, #24]
  4002a8:	91006210 	add	x16, x16, #0x18
  4002ac:	d61f0220 	br	x17
  4002b0:	90000470 	adrp	x16, 48c000 <.got.plt+0x18>
  4002b4:	f9401211 	ldr	x17, [x16, #32]
  4002b8:	91008210 	add	x16, x16, #0x20
  4002bc:	d61f0220 	br	x17
  4002c0:	90000470 	adrp	x16, 48c000 <.got.plt+0x18>
  4002c4:	f9401611 	ldr	x17, [x16, #40]
  4002c8:	9100a210 	add	x16, x16, #0x28
  4002cc:	d61f0220 	br	x17
  4002d0:	90000470 	adrp	x16, 48c000 <.got.plt+0x18>
  4002d4:	f9401a11 	ldr	x17, [x16, #48]
  4002d8:	9100c210 	add	x16, x16, #0x30
  4002dc:	d61f0220 	br	x17

Disassembly of section .text:

0000000000400300 <abort>:
  400300:	a9ac7bfd 	stp	x29, x30, [sp, #-320]!
  400304:	910003fd 	mov	x29, sp
  400308:	a90153f3 	stp	x19, x20, [sp, #16]
  40030c:	d0000473 	adrp	x19, 48e000 <static_slotinfo+0x2b0>
  400310:	910b8273 	add	x19, x19, #0x2e0
  400314:	d53bd054 	mrs	x20, tpidr_el0
  400318:	d11e4294 	sub	x20, x20, #0x790
  40031c:	f9400660 	ldr	x0, [x19, #8]
  400320:	eb14001f 	cmp	x0, x20
  400324:	54000120 	b.eq	400348 <abort+0x48>  // b.none
  400328:	aa1303e2 	mov	x2, x19
  40032c:	52800021 	mov	w1, #0x1                   	// #1
  400330:	52800000 	mov	w0, #0x0                   	// #0
  400334:	9401327b 	bl	44cd20 <__aarch64_cas4_acq>
  400338:	34000060 	cbz	w0, 400344 <abort+0x44>
  40033c:	aa1303e0 	mov	x0, x19
  400340:	940035d4 	bl	40da90 <__lll_lock_wait_private>
  400344:	f9000674 	str	x20, [x19, #8]
  400348:	b9400660 	ldr	w0, [x19, #4]
  40034c:	b9401261 	ldr	w1, [x19, #16]
  400350:	11000400 	add	w0, w0, #0x1
  400354:	b9000660 	str	w0, [x19, #4]
  400358:	35000101 	cbnz	w1, 400378 <abort+0x78>
  40035c:	d2800403 	mov	x3, #0x20                  	// #32
  400360:	52800020 	mov	w0, #0x1                   	// #1
  400364:	9100a3e1 	add	x1, sp, #0x28
  400368:	d2800002 	mov	x2, #0x0                   	// #0
  40036c:	b9001260 	str	w0, [x19, #16]
  400370:	f90017e3 	str	x3, [sp, #40]
  400374:	940012e3 	bl	404f00 <__sigprocmask>
  400378:	b9401260 	ldr	w0, [x19, #16]
  40037c:	7100041f 	cmp	w0, #0x1
  400380:	540003c1 	b.ne	4003f8 <abort+0xf8>  // b.any
  400384:	b9400660 	ldr	w0, [x19, #4]
  400388:	b900127f 	str	wzr, [x19, #16]
  40038c:	51000400 	sub	w0, w0, #0x1
  400390:	b9000660 	str	w0, [x19, #4]
  400394:	35000100 	cbnz	w0, 4003b4 <abort+0xb4>
  400398:	aa1303e1 	mov	x1, x19
  40039c:	f900067f 	str	xzr, [x19, #8]
  4003a0:	940132f4 	bl	44cf70 <__aarch64_swp4_rel>
  4003a4:	7100041f 	cmp	w0, #0x1
  4003a8:	5400006d 	b.le	4003b4 <abort+0xb4>
  4003ac:	aa1303e0 	mov	x0, x19
  4003b0:	940035f9 	bl	40db94 <__lll_lock_wake_private>
  4003b4:	528000c0 	mov	w0, #0x6                   	// #6
  4003b8:	940012be 	bl	404eb0 <raise>
  4003bc:	f9400660 	ldr	x0, [x19, #8]
  4003c0:	eb00029f 	cmp	x20, x0
  4003c4:	54000120 	b.eq	4003e8 <abort+0xe8>  // b.none
  4003c8:	aa1303e2 	mov	x2, x19
  4003cc:	52800021 	mov	w1, #0x1                   	// #1
  4003d0:	52800000 	mov	w0, #0x0                   	// #0
  4003d4:	94013253 	bl	44cd20 <__aarch64_cas4_acq>
  4003d8:	34000060 	cbz	w0, 4003e4 <abort+0xe4>
  4003dc:	aa1303e0 	mov	x0, x19
  4003e0:	940035ac 	bl	40da90 <__lll_lock_wait_private>
  4003e4:	f9000674 	str	x20, [x19, #8]
  4003e8:	b9400660 	ldr	w0, [x19, #4]
  4003ec:	11000400 	add	w0, w0, #0x1
  4003f0:	b9000660 	str	w0, [x19, #4]
  4003f4:	14000003 	b	400400 <abort+0x100>
  4003f8:	7100081f 	cmp	w0, #0x2
  4003fc:	540001a1 	b.ne	400430 <abort+0x130>  // b.any
  400400:	52800063 	mov	w3, #0x3                   	// #3
  400404:	d2801302 	mov	x2, #0x98                  	// #152
  400408:	52800001 	mov	w1, #0x0                   	// #0
  40040c:	9102a3e0 	add	x0, sp, #0xa8
  400410:	b9001263 	str	w3, [x19, #16]
  400414:	97ffffa3 	bl	4002a0 <.plt+0x30>
  400418:	92800003 	mov	x3, #0xffffffffffffffff    	// #-1
  40041c:	9102a3e1 	add	x1, sp, #0xa8
  400420:	d2800002 	mov	x2, #0x0                   	// #0
  400424:	528000c0 	mov	w0, #0x6                   	// #6
  400428:	f9005be3 	str	x3, [sp, #176]
  40042c:	94009d7d 	bl	427a20 <__sigaction>
  400430:	b9401260 	ldr	w0, [x19, #16]
  400434:	71000c1f 	cmp	w0, #0x3
  400438:	540000a1 	b.ne	40044c <abort+0x14c>  // b.any
  40043c:	52800081 	mov	w1, #0x4                   	// #4
  400440:	528000c0 	mov	w0, #0x6                   	// #6
  400444:	b9001261 	str	w1, [x19, #16]
  400448:	9400129a 	bl	404eb0 <raise>
  40044c:	b9401260 	ldr	w0, [x19, #16]
  400450:	7100101f 	cmp	w0, #0x4
  400454:	54000081 	b.ne	400464 <abort+0x164>  // b.any
  400458:	528000a0 	mov	w0, #0x5                   	// #5
  40045c:	b9001260 	str	w0, [x19, #16]
  400460:	d4207d00 	brk	#0x3e8
  400464:	b9401260 	ldr	w0, [x19, #16]
  400468:	7100141f 	cmp	w0, #0x5
  40046c:	540000a1 	b.ne	400480 <abort+0x180>  // b.any
  400470:	528000c1 	mov	w1, #0x6                   	// #6
  400474:	52800fe0 	mov	w0, #0x7f                  	// #127
  400478:	b9001261 	str	w1, [x19, #16]
  40047c:	94005e9d 	bl	417ef0 <_exit>
  400480:	d4207d00 	brk	#0x3e8
  400484:	17ffffff 	b	400480 <abort+0x180>

0000000000400488 <_dl_start>:
  400488:	a9bf7bfd 	stp	x29, x30, [sp, #-16]!
  40048c:	910003fd 	mov	x29, sp
  400490:	97ffff9c 	bl	400300 <abort>
  400494:	d503201f 	nop
  400498:	d503201f 	nop
  40049c:	d503201f 	nop

00000000004004a0 <init_have_lse_atomics>:
  4004a0:	a9bf7bfd 	stp	x29, x30, [sp, #-16]!
  4004a4:	d2800200 	mov	x0, #0x10                  	// #16
  4004a8:	910003fd 	mov	x29, sp
  4004ac:	94014702 	bl	4520b4 <__getauxval>
  4004b0:	53082000 	ubfx	w0, w0, #8, #1
  4004b4:	d0000481 	adrp	x1, 492000 <__pthread_keys+0x3868>
  4004b8:	a8c17bfd 	ldp	x29, x30, [sp], #16
  4004bc:	3933f020 	strb	w0, [x1, #3324]
  4004c0:	d65f03c0 	ret
  4004c4:	d503201f 	nop
  4004c8:	d503201f 	nop
  4004cc:	d503201f 	nop
  4004d0:	d503201f 	nop
  4004d4:	d503201f 	nop
  4004d8:	d503201f 	nop
  4004dc:	d503201f 	nop
  4004e0:	d503201f 	nop
  4004e4:	d503201f 	nop
  4004e8:	d503201f 	nop
  4004ec:	d503201f 	nop
  4004f0:	d503201f 	nop
  4004f4:	d503201f 	nop
  4004f8:	d503201f 	nop
  4004fc:	d503201f 	nop

0000000000400500 <_start>:
  400500:	d503201f 	nop
  400504:	d280001d 	mov	x29, #0x0                   	// #0
  400508:	d280001e 	mov	x30, #0x0                   	// #0
  40050c:	aa0003e5 	mov	x5, x0
  400510:	f94003e1 	ldr	x1, [sp]
  400514:	910023e2 	add	x2, sp, #0x8
  400518:	910003e6 	mov	x6, sp
  40051c:	d2e00000 	movz	x0, #0x0, lsl #48
  400520:	f2c00000 	movk	x0, #0x0, lsl #32
  400524:	f2a00800 	movk	x0, #0x40, lsl #16
  400528:	f280c880 	movk	x0, #0x644
  40052c:	d2800003 	mov	x3, #0x0                   	// #0
  400530:	d2800004 	mov	x4, #0x0                   	// #0
  400534:	94000087 	bl	400750 <__libc_start_main>
  400538:	97ffff72 	bl	400300 <abort>

000000000040053c <call_weak_fn>:
  40053c:	f0000440 	adrp	x0, 48b000 <__FRAME_END__+0x103d8>
  400540:	f947f000 	ldr	x0, [x0, #4064]
  400544:	b4000040 	cbz	x0, 40054c <call_weak_fn+0x10>
  400548:	d503201f 	nop
  40054c:	d65f03c0 	ret

0000000000400550 <deregister_tm_clones>:
  400550:	b0000460 	adrp	x0, 48d000 <_dl_main_map+0xe8>
  400554:	91244000 	add	x0, x0, #0x910
  400558:	b0000461 	adrp	x1, 48d000 <_dl_main_map+0xe8>
  40055c:	91244021 	add	x1, x1, #0x910
  400560:	eb00003f 	cmp	x1, x0
  400564:	540000c0 	b.eq	40057c <deregister_tm_clones+0x2c>  // b.none
  400568:	d0000281 	adrp	x1, 452000 <__gcc_personality_v0+0x2c0>
  40056c:	f946ec21 	ldr	x1, [x1, #3544]
  400570:	b4000061 	cbz	x1, 40057c <deregister_tm_clones+0x2c>
  400574:	aa0103f0 	mov	x16, x1
  400578:	d61f0200 	br	x16
  40057c:	d65f03c0 	ret

0000000000400580 <register_tm_clones>:
  400580:	b0000460 	adrp	x0, 48d000 <_dl_main_map+0xe8>
  400584:	91244000 	add	x0, x0, #0x910
  400588:	b0000461 	adrp	x1, 48d000 <_dl_main_map+0xe8>
  40058c:	91244021 	add	x1, x1, #0x910
  400590:	cb000021 	sub	x1, x1, x0
  400594:	d37ffc22 	lsr	x2, x1, #63
  400598:	8b810c41 	add	x1, x2, x1, asr #3
  40059c:	9341fc21 	asr	x1, x1, #1
  4005a0:	b40000c1 	cbz	x1, 4005b8 <register_tm_clones+0x38>
  4005a4:	d0000282 	adrp	x2, 452000 <__gcc_personality_v0+0x2c0>
  4005a8:	f946f042 	ldr	x2, [x2, #3552]
  4005ac:	b4000062 	cbz	x2, 4005b8 <register_tm_clones+0x38>
  4005b0:	aa0203f0 	mov	x16, x2
  4005b4:	d61f0200 	br	x16
  4005b8:	d65f03c0 	ret
  4005bc:	d503201f 	nop

00000000004005c0 <__do_global_dtors_aux>:
  4005c0:	a9be7bfd 	stp	x29, x30, [sp, #-32]!
  4005c4:	910003fd 	mov	x29, sp
  4005c8:	f9000bf3 	str	x19, [sp, #16]
  4005cc:	b0000473 	adrp	x19, 48d000 <_dl_main_map+0xe8>
  4005d0:	39644260 	ldrb	w0, [x19, #2320]
  4005d4:	35000140 	cbnz	w0, 4005fc <__do_global_dtors_aux+0x3c>
  4005d8:	97ffffde 	bl	400550 <deregister_tm_clones>
  4005dc:	d0000280 	adrp	x0, 452000 <__gcc_personality_v0+0x2c0>
  4005e0:	f946f400 	ldr	x0, [x0, #3560]
  4005e4:	b4000080 	cbz	x0, 4005f4 <__do_global_dtors_aux+0x34>
  4005e8:	f0000360 	adrp	x0, 46f000 <__PRETTY_FUNCTION__.0+0x30>
  4005ec:	9121c000 	add	x0, x0, #0x870
  4005f0:	940144cd 	bl	451924 <__deregister_frame_info>
  4005f4:	52800020 	mov	w0, #0x1                   	// #1
  4005f8:	39244260 	strb	w0, [x19, #2320]
  4005fc:	f9400bf3 	ldr	x19, [sp, #16]
  400600:	a8c27bfd 	ldp	x29, x30, [sp], #32
  400604:	d65f03c0 	ret
  400608:	d503201f 	nop
  40060c:	d503201f 	nop

0000000000400610 <frame_dummy>:
  400610:	d0000280 	adrp	x0, 452000 <__gcc_personality_v0+0x2c0>
  400614:	f946f800 	ldr	x0, [x0, #3568]
  400618:	b4000140 	cbz	x0, 400640 <frame_dummy+0x30>
  40061c:	a9bf7bfd 	stp	x29, x30, [sp, #-16]!
  400620:	b0000461 	adrp	x1, 48d000 <_dl_main_map+0xe8>
  400624:	f0000360 	adrp	x0, 46f000 <__PRETTY_FUNCTION__.0+0x30>
  400628:	910003fd 	mov	x29, sp
  40062c:	91246021 	add	x1, x1, #0x918
  400630:	9121c000 	add	x0, x0, #0x870
  400634:	940143b3 	bl	451500 <__register_frame_info>
  400638:	a8c17bfd 	ldp	x29, x30, [sp], #16
  40063c:	17ffffd1 	b	400580 <register_tm_clones>
  400640:	17ffffd0 	b	400580 <register_tm_clones>

0000000000400644 <main>:
  400644:	a9bf7bfd 	stp	x29, x30, [sp, #-16]!
  400648:	910003fd 	mov	x29, sp
  40064c:	d0000280 	adrp	x0, 452000 <__gcc_personality_v0+0x2c0>
  400650:	9137e000 	add	x0, x0, #0xdf8
  400654:	9400192f 	bl	406b10 <_IO_puts>
  400658:	52800000 	mov	w0, #0x0                   	// #0
  40065c:	a8c17bfd 	ldp	x29, x30, [sp], #16
  400660:	d65f03c0 	ret
  400664:	d503201f 	nop
  400668:	d503201f 	nop
  40066c:	d503201f 	nop

0000000000400670 <call_fini>:
  400670:	a9be7bfd 	stp	x29, x30, [sp, #-32]!
  400674:	f0000440 	adrp	x0, 48b000 <__FRAME_END__+0x103d8>
  400678:	910f8000 	add	x0, x0, #0x3e0
  40067c:	910003fd 	mov	x29, sp
  400680:	a90153f3 	stp	x19, x20, [sp, #16]
  400684:	f0000453 	adrp	x19, 48b000 <__FRAME_END__+0x103d8>
  400688:	910fa273 	add	x19, x19, #0x3e8
  40068c:	cb000273 	sub	x19, x19, x0
  400690:	9343fe73 	asr	x19, x19, #3
  400694:	b40000f3 	cbz	x19, 4006b0 <call_fini+0x40>
  400698:	f0000454 	adrp	x20, 48b000 <__FRAME_END__+0x103d8>
  40069c:	910f6294 	add	x20, x20, #0x3d8
  4006a0:	f8737a80 	ldr	x0, [x20, x19, lsl #3]
  4006a4:	d63f0000 	blr	x0
  4006a8:	f1000673 	subs	x19, x19, #0x1
  4006ac:	54ffffa1 	b.ne	4006a0 <call_fini+0x30>  // b.any
  4006b0:	a94153f3 	ldp	x19, x20, [sp, #16]
  4006b4:	a8c27bfd 	ldp	x29, x30, [sp], #32
  4006b8:	140149bf 	b	452db4 <_fini>
  4006bc:	d503201f 	nop

00000000004006c0 <__libc_start_call_main>:
  4006c0:	a9af7bfd 	stp	x29, x30, [sp, #-272]!
  4006c4:	910003fd 	mov	x29, sp
  4006c8:	f9000fe0 	str	x0, [sp, #24]
  4006cc:	9100e3e0 	add	x0, sp, #0x38
  4006d0:	b90027e1 	str	w1, [sp, #36]
  4006d4:	f90017e2 	str	x2, [sp, #40]
  4006d8:	940011ba 	bl	404dc0 <_setjmp>
  4006dc:	350001e0 	cbnz	w0, 400718 <__libc_start_call_main+0x58>
  4006e0:	d53bd040 	mrs	x0, tpidr_el0
  4006e4:	d0000481 	adrp	x1, 492000 <__pthread_keys+0x3868>
  4006e8:	d11e4000 	sub	x0, x0, #0x790
  4006ec:	9100e3e3 	add	x3, sp, #0x38
  4006f0:	f943f822 	ldr	x2, [x1, #2032]
  4006f4:	f9408004 	ldr	x4, [x0, #256]
  4006f8:	f9008003 	str	x3, [x0, #256]
  4006fc:	f9407c03 	ldr	x3, [x0, #248]
  400700:	a90f0fe4 	stp	x4, x3, [sp, #240]
  400704:	b94027e0 	ldr	w0, [sp, #36]
  400708:	f9400fe3 	ldr	x3, [sp, #24]
  40070c:	f94017e1 	ldr	x1, [sp, #40]
  400710:	d63f0060 	blr	x3
  400714:	94001447 	bl	405830 <exit>
  400718:	9400352e 	bl	40dbd0 <__nptl_deallocate_tsd>
  40071c:	90000461 	adrp	x1, 48c000 <.got.plt+0x18>
  400720:	12800000 	mov	w0, #0xffffffff            	// #-1
  400724:	91176021 	add	x1, x1, #0x5d8
  400728:	940131e2 	bl	44ceb0 <__aarch64_ldadd4_acq>
  40072c:	7100041f 	cmp	w0, #0x1
  400730:	540000a0 	b.eq	400744 <__libc_start_call_main+0x84>  // b.none
  400734:	d2800ba8 	mov	x8, #0x5d                  	// #93
  400738:	d2800000 	mov	x0, #0x0                   	// #0
  40073c:	d4000001 	svc	#0x0
  400740:	17fffffe 	b	400738 <__libc_start_call_main+0x78>
  400744:	52800000 	mov	w0, #0x0                   	// #0
  400748:	9400143a 	bl	405830 <exit>
  40074c:	d503201f 	nop

0000000000400750 <__libc_start_main>:
  400750:	a9b77bfd 	stp	x29, x30, [sp, #-144]!
  400754:	910003fd 	mov	x29, sp
  400758:	a90153f3 	stp	x19, x20, [sp, #16]
  40075c:	2a0103f4 	mov	w20, w1
  400760:	f0000441 	adrp	x1, 48b000 <__FRAME_END__+0x103d8>
  400764:	a90363f7 	stp	x23, x24, [sp, #48]
  400768:	d0000497 	adrp	x23, 492000 <__pthread_keys+0x3868>
  40076c:	8b34cc43 	add	x3, x2, w20, sxtw #3
  400770:	a9025bf5 	stp	x21, x22, [sp, #32]
  400774:	aa0203f5 	mov	x21, x2
  400778:	aa0503f6 	mov	x22, x5
  40077c:	f9078426 	str	x6, [x1, #3848]
  400780:	f90037e0 	str	x0, [sp, #104]
  400784:	91002060 	add	x0, x3, #0x8
  400788:	f903fae0 	str	x0, [x23, #2032]
  40078c:	d503201f 	nop
  400790:	f8408403 	ldr	x3, [x0], #8
  400794:	b5ffffe3 	cbnz	x3, 400790 <__libc_start_main+0x40>
  400798:	94006d7e 	bl	41bd90 <_dl_aux_init>
  40079c:	d0000481 	adrp	x1, 492000 <__pthread_keys+0x3868>
  4007a0:	d0000280 	adrp	x0, 452000 <__gcc_personality_v0+0x2c0>
  4007a4:	f9443022 	ldr	x2, [x1, #2144]
  4007a8:	f947a800 	ldr	x0, [x0, #3920]
  4007ac:	f100005f 	cmp	x2, #0x0
  4007b0:	fa400804 	ccmp	x0, #0x0, #0x4, eq  // eq = none
  4007b4:	54000a01 	b.ne	4008f4 <__libc_start_main+0x1a4>  // b.any
  4007b8:	a9046bf9 	stp	x25, x26, [sp, #64]
  4007bc:	a90573fb 	stp	x27, x28, [sp, #80]
  4007c0:	940070e4 	bl	41cb50 <__libc_init_secure>
  4007c4:	f943fae0 	ldr	x0, [x23, #2032]
  4007c8:	94006b02 	bl	41b3d0 <__tunables_init>
  4007cc:	9101e3e1 	add	x1, sp, #0x78
  4007d0:	d2800002 	mov	x2, #0x0                   	// #0
  4007d4:	52800080 	mov	w0, #0x4                   	// #4
  4007d8:	94006c92 	bl	41ba20 <__tunable_get_val>
  4007dc:	f9403ffa 	ldr	x26, [sp, #120]
  4007e0:	b40001da 	cbz	x26, 400818 <__libc_start_main+0xc8>
  4007e4:	d000029b 	adrp	x27, 452000 <__gcc_personality_v0+0x2c0>
  4007e8:	913da37b 	add	x27, x27, #0xf68
  4007ec:	aa1b03f9 	mov	x25, x27
  4007f0:	52800013 	mov	w19, #0x0                   	// #0
  4007f4:	d503201f 	nop
  4007f8:	f9400321 	ldr	x1, [x25]
  4007fc:	aa1a03e0 	mov	x0, x26
  400800:	94004d80 	bl	413e00 <strcmp>
  400804:	340006c0 	cbz	w0, 4008dc <__libc_start_main+0x18c>
  400808:	11000673 	add	w19, w19, #0x1
  40080c:	91004339 	add	x25, x25, #0x10
  400810:	71002a7f 	cmp	w19, #0xa
  400814:	54ffff21 	b.ne	4007f8 <__libc_start_main+0xa8>  // b.any
  400818:	d000049c 	adrp	x28, 492000 <__pthread_keys+0x3868>
  40081c:	f9442780 	ldr	x0, [x28, #2120]
  400820:	92750002 	and	x2, x0, #0x800
  400824:	36580040 	tbz	w0, #11, 40082c <__libc_start_main+0xdc>
  400828:	d5380002 	mrs	x2, midr_el1
  40082c:	d0000481 	adrp	x1, 492000 <__pthread_keys+0x3868>
  400830:	91246020 	add	x0, x1, #0x918
  400834:	f9048c22 	str	x2, [x1, #2328]
  400838:	d53b00e1 	mrs	x1, dczid_el0
  40083c:	372000a1 	tbnz	w1, #4, 400850 <__libc_start_main+0x100>
  400840:	12000c21 	and	w1, w1, #0xf
  400844:	52800082 	mov	w2, #0x4                   	// #4
  400848:	1ac12041 	lsl	w1, w2, w1
  40084c:	b9000801 	str	w1, [x0, #8]
  400850:	d0000498 	adrp	x24, 492000 <__pthread_keys+0x3868>
  400854:	d0000285 	adrp	x5, 452000 <__gcc_personality_v0+0x2c0>
  400858:	f9442781 	ldr	x1, [x28, #2120]
  40085c:	d0000284 	adrp	x4, 452000 <__gcc_personality_v0+0x2c0>
  400860:	f9442302 	ldr	x2, [x24, #2112]
  400864:	3900341f 	strb	wzr, [x0, #13]
  400868:	f947a4b3 	ldr	x19, [x5, #3912]
  40086c:	53165821 	ubfx	w1, w1, #22, #1
  400870:	f947ac99 	ldr	x25, [x4, #3928]
  400874:	53114442 	ubfx	w2, w2, #17, #1
  400878:	39003002 	strb	w2, [x0, #12]
  40087c:	39003801 	strb	w1, [x0, #14]
  400880:	eb19027f 	cmp	x19, x25
  400884:	540004c2 	b.cs	40091c <__libc_start_main+0x1cc>  // b.hs, b.nlast
  400888:	d280031a 	mov	x26, #0x18                  	// #24
  40088c:	1400000d 	b	4008c0 <__libc_start_main+0x170>
  400890:	f9400a62 	ldr	x2, [x19, #16]
  400894:	91006273 	add	x19, x19, #0x18
  400898:	f9442780 	ldr	x0, [x28, #2120]
  40089c:	a90783fa 	stp	x26, x0, [sp, #120]
  4008a0:	f9442301 	ldr	x1, [x24, #2112]
  4008a4:	f90047e1 	str	x1, [sp, #136]
  4008a8:	b2420000 	orr	x0, x0, #0x4000000000000000
  4008ac:	9101e3e1 	add	x1, sp, #0x78
  4008b0:	d63f0040 	blr	x2
  4008b4:	f9000360 	str	x0, [x27]
  4008b8:	eb19027f 	cmp	x19, x25
  4008bc:	54000302 	b.cs	40091c <__libc_start_main+0x1cc>  // b.hs, b.nlast
  4008c0:	b9400a60 	ldr	w0, [x19, #8]
  4008c4:	f940027b 	ldr	x27, [x19]
  4008c8:	f110201f 	cmp	x0, #0x408
  4008cc:	54fffe20 	b.eq	400890 <__libc_start_main+0x140>  // b.none
  4008d0:	d0000280 	adrp	x0, 452000 <__gcc_personality_v0+0x2c0>
  4008d4:	91394000 	add	x0, x0, #0xe50
  4008d8:	940020ee 	bl	408c90 <__libc_fatal>
  4008dc:	8b33d373 	add	x19, x27, w19, sxtw #4
  4008e0:	f9400662 	ldr	x2, [x19, #8]
  4008e4:	b100045f 	cmn	x2, #0x1
  4008e8:	54fff980 	b.eq	400818 <__libc_start_main+0xc8>  // b.none
  4008ec:	d000049c 	adrp	x28, 492000 <__pthread_keys+0x3868>
  4008f0:	17ffffcf 	b	40082c <__libc_start_main+0xdc>
  4008f4:	79406c02 	ldrh	w2, [x0, #54]
  4008f8:	7100e05f 	cmp	w2, #0x38
  4008fc:	54000bc1 	b.ne	400a74 <__libc_start_main+0x324>  // b.any
  400900:	f9401002 	ldr	x2, [x0, #32]
  400904:	d0000483 	adrp	x3, 492000 <__pthread_keys+0x3868>
  400908:	79407004 	ldrh	w4, [x0, #56]
  40090c:	f9042c64 	str	x4, [x3, #2136]
  400910:	8b000040 	add	x0, x2, x0
  400914:	f9043020 	str	x0, [x1, #2144]
  400918:	17ffffa8 	b	4007b8 <__libc_start_main+0x68>
  40091c:	f0000459 	adrp	x25, 48b000 <__FRAME_END__+0x103d8>
  400920:	940000a8 	bl	400bc0 <__libc_setup_tls>
  400924:	f0000453 	adrp	x19, 48b000 <__FRAME_END__+0x103d8>
  400928:	f9477720 	ldr	x0, [x25, #3816]
  40092c:	f9400000 	ldr	x0, [x0]
  400930:	9278dc00 	and	x0, x0, #0xffffffffffffff00
  400934:	f901f660 	str	x0, [x19, #1000]
  400938:	9400703a 	bl	41ca20 <_dl_discover_osversion>
  40093c:	37f80bc0 	tbnz	w0, #31, 400ab4 <__libc_start_main+0x364>
  400940:	d0000481 	adrp	x1, 492000 <__pthread_keys+0x3868>
  400944:	b948a822 	ldr	w2, [x1, #2216]
  400948:	35000b02 	cbnz	w2, 400aa8 <__libc_start_main+0x358>
  40094c:	b908a820 	str	w0, [x1, #2216]
  400950:	5280dfe1 	mov	w1, #0x6ff                 	// #1791
  400954:	72a00061 	movk	w1, #0x3, lsl #16
  400958:	6b01001f 	cmp	w0, w1
  40095c:	54000a0d 	b.le	400a9c <__libc_start_main+0x34c>
  400960:	d0000280 	adrp	x0, 452000 <__gcc_personality_v0+0x2c0>
  400964:	f947b000 	ldr	x0, [x0, #3936]
  400968:	b4000040 	cbz	x0, 400970 <__libc_start_main+0x220>
  40096c:	d503201f 	nop
  400970:	f9477720 	ldr	x0, [x25, #3816]
  400974:	910fa273 	add	x19, x19, #0x3e8
  400978:	f9400400 	ldr	x0, [x0, #8]
  40097c:	f9000660 	str	x0, [x19, #8]
  400980:	b40000b6 	cbz	x22, 400994 <__libc_start_main+0x244>
  400984:	aa1603e0 	mov	x0, x22
  400988:	d2800002 	mov	x2, #0x0                   	// #0
  40098c:	d2800001 	mov	x1, #0x0                   	// #0
  400990:	94001431 	bl	405a54 <__cxa_atexit>
  400994:	52800020 	mov	w0, #0x1                   	// #1
  400998:	94007086 	bl	41cbb0 <__libc_early_init>
  40099c:	f943fae2 	ldr	x2, [x23, #2032]
  4009a0:	aa1503e1 	mov	x1, x21
  4009a4:	2a1403e0 	mov	w0, w20
  4009a8:	940070ae 	bl	41cc60 <__libc_init_first>
  4009ac:	90000000 	adrp	x0, 400000 <__ehdr_start>
  4009b0:	d2800002 	mov	x2, #0x0                   	// #0
  4009b4:	9119c000 	add	x0, x0, #0x670
  4009b8:	d2800001 	mov	x1, #0x0                   	// #0
  4009bc:	94001426 	bl	405a54 <__cxa_atexit>
  4009c0:	f0000440 	adrp	x0, 48b000 <__FRAME_END__+0x103d8>
  4009c4:	b94f1000 	ldr	w0, [x0, #3856]
  4009c8:	350007c0 	cbnz	w0, 400ac0 <__libc_start_main+0x370>
  4009cc:	f0000440 	adrp	x0, 48b000 <__FRAME_END__+0x103d8>
  4009d0:	f0000459 	adrp	x25, 48b000 <__FRAME_END__+0x103d8>
  4009d4:	910f4000 	add	x0, x0, #0x3d0
  4009d8:	910f4339 	add	x25, x25, #0x3d0
  4009dc:	cb190000 	sub	x0, x0, x25
  4009e0:	d2800013 	mov	x19, #0x0                   	// #0
  4009e4:	f943faf6 	ldr	x22, [x23, #2032]
  4009e8:	9343fc17 	asr	x23, x0, #3
  4009ec:	b4000137 	cbz	x23, 400a10 <__libc_start_main+0x2c0>
  4009f0:	f8737b23 	ldr	x3, [x25, x19, lsl #3]
  4009f4:	aa1603e2 	mov	x2, x22
  4009f8:	91000673 	add	x19, x19, #0x1
  4009fc:	aa1503e1 	mov	x1, x21
  400a00:	2a1403e0 	mov	w0, w20
  400a04:	d63f0060 	blr	x3
  400a08:	eb1302ff 	cmp	x23, x19
  400a0c:	54ffff21 	b.ne	4009f0 <__libc_start_main+0x2a0>  // b.any
  400a10:	f0000457 	adrp	x23, 48b000 <__FRAME_END__+0x103d8>
  400a14:	f0000459 	adrp	x25, 48b000 <__FRAME_END__+0x103d8>
  400a18:	910f82f7 	add	x23, x23, #0x3e0
  400a1c:	910f4339 	add	x25, x25, #0x3d0
  400a20:	cb1902f7 	sub	x23, x23, x25
  400a24:	d2800013 	mov	x19, #0x0                   	// #0
  400a28:	97fffe0c 	bl	400258 <_init>
  400a2c:	9343fef7 	asr	x23, x23, #3
  400a30:	b4000157 	cbz	x23, 400a58 <__libc_start_main+0x308>
  400a34:	d503201f 	nop
  400a38:	f8737b23 	ldr	x3, [x25, x19, lsl #3]
  400a3c:	aa1603e2 	mov	x2, x22
  400a40:	91000673 	add	x19, x19, #0x1
  400a44:	aa1503e1 	mov	x1, x21
  400a48:	2a1403e0 	mov	w0, w20
  400a4c:	d63f0060 	blr	x3
  400a50:	eb1302ff 	cmp	x23, x19
  400a54:	54ffff21 	b.ne	400a38 <__libc_start_main+0x2e8>  // b.any
  400a58:	d2800001 	mov	x1, #0x0                   	// #0
  400a5c:	d2800000 	mov	x0, #0x0                   	// #0
  400a60:	94006761 	bl	41a7e4 <_dl_debug_initialize>
  400a64:	f94037e0 	ldr	x0, [sp, #104]
  400a68:	aa1503e2 	mov	x2, x21
  400a6c:	2a1403e1 	mov	w1, w20
  400a70:	97ffff14 	bl	4006c0 <__libc_start_call_main>
  400a74:	d0000283 	adrp	x3, 452000 <__gcc_personality_v0+0x2c0>
  400a78:	d0000281 	adrp	x1, 452000 <__gcc_personality_v0+0x2c0>
  400a7c:	d0000280 	adrp	x0, 452000 <__gcc_personality_v0+0x2c0>
  400a80:	913b0063 	add	x3, x3, #0xec0
  400a84:	91382021 	add	x1, x1, #0xe08
  400a88:	91388000 	add	x0, x0, #0xe20
  400a8c:	52802342 	mov	w2, #0x11a                 	// #282
  400a90:	a9046bf9 	stp	x25, x26, [sp, #64]
  400a94:	a90573fb 	stp	x27, x28, [sp, #80]
  400a98:	94000123 	bl	400f24 <__assert_fail>
  400a9c:	d0000280 	adrp	x0, 452000 <__gcc_personality_v0+0x2c0>
  400aa0:	913a0000 	add	x0, x0, #0xe80
  400aa4:	9400207b 	bl	408c90 <__libc_fatal>
  400aa8:	6b00005f 	cmp	w2, w0
  400aac:	54fff529 	b.ls	400950 <__libc_start_main+0x200>  // b.plast
  400ab0:	17ffffa7 	b	40094c <__libc_start_main+0x1fc>
  400ab4:	d0000280 	adrp	x0, 452000 <__gcc_personality_v0+0x2c0>
  400ab8:	913a6000 	add	x0, x0, #0xe98
  400abc:	94002075 	bl	408c90 <__libc_fatal>
  400ac0:	94000034 	bl	400b90 <__libc_check_standard_fds>
  400ac4:	17ffffc2 	b	4009cc <__libc_start_main+0x27c>
  400ac8:	d503201f 	nop
  400acc:	d503201f 	nop

0000000000400ad0 <check_one_fd>:
  400ad0:	a9b57bfd 	stp	x29, x30, [sp, #-176]!
  400ad4:	910003fd 	mov	x29, sp
  400ad8:	a90153f3 	stp	x19, x20, [sp, #16]
  400adc:	2a0103f4 	mov	w20, w1
  400ae0:	2a0003f3 	mov	w19, w0
  400ae4:	52800021 	mov	w1, #0x1                   	// #1
  400ae8:	9400618a 	bl	419110 <__fcntl64_nocancel>
  400aec:	3100041f 	cmn	w0, #0x1
  400af0:	54000080 	b.eq	400b00 <check_one_fd+0x30>  // b.none
  400af4:	a94153f3 	ldp	x19, x20, [sp, #16]
  400af8:	a8cb7bfd 	ldp	x29, x30, [sp], #176
  400afc:	d65f03c0 	ret
  400b00:	f0000440 	adrp	x0, 48b000 <__FRAME_END__+0x103d8>
  400b04:	f947c800 	ldr	x0, [x0, #3984]
  400b08:	d53bd041 	mrs	x1, tpidr_el0
  400b0c:	b8606820 	ldr	w0, [x1, x0]
  400b10:	7100241f 	cmp	w0, #0x9
  400b14:	54ffff01 	b.ne	400af4 <check_one_fd+0x24>  // b.any
  400b18:	f90013f5 	str	x21, [sp, #32]
  400b1c:	7140229f 	cmp	w20, #0x8, lsl #12
  400b20:	54000301 	b.ne	400b80 <check_one_fd+0xb0>  // b.any
  400b24:	f0000280 	adrp	x0, 453000 <cpu_list+0x98>
  400b28:	91006000 	add	x0, x0, #0x18
  400b2c:	d2802075 	mov	x21, #0x103                 	// #259
  400b30:	2a1403e1 	mov	w1, w20
  400b34:	52800002 	mov	w2, #0x0                   	// #0
  400b38:	940061c6 	bl	419250 <__open64_nocancel>
  400b3c:	6b00027f 	cmp	w19, w0
  400b40:	54000081 	b.ne	400b50 <check_one_fd+0x80>  // b.any
  400b44:	9100c3e1 	add	x1, sp, #0x30
  400b48:	94005ee2 	bl	4186d0 <__fstat>
  400b4c:	34000080 	cbz	w0, 400b5c <check_one_fd+0x8c>
  400b50:	d4207d00 	brk	#0x3e8
  400b54:	d4207d00 	brk	#0x3e8
  400b58:	17fffffe 	b	400b50 <check_one_fd+0x80>
  400b5c:	b94043e0 	ldr	w0, [sp, #64]
  400b60:	12140c00 	and	w0, w0, #0xf000
  400b64:	7140081f 	cmp	w0, #0x2, lsl #12
  400b68:	54ffff41 	b.ne	400b50 <check_one_fd+0x80>  // b.any
  400b6c:	f9402be0 	ldr	x0, [sp, #80]
  400b70:	eb15001f 	cmp	x0, x21
  400b74:	54fffee1 	b.ne	400b50 <check_one_fd+0x80>  // b.any
  400b78:	f94013f5 	ldr	x21, [sp, #32]
  400b7c:	17ffffde 	b	400af4 <check_one_fd+0x24>
  400b80:	f0000280 	adrp	x0, 453000 <cpu_list+0x98>
  400b84:	d28020f5 	mov	x21, #0x107                 	// #263
  400b88:	91002000 	add	x0, x0, #0x8
  400b8c:	17ffffe9 	b	400b30 <check_one_fd+0x60>

0000000000400b90 <__libc_check_standard_fds>:
  400b90:	a9bf7bfd 	stp	x29, x30, [sp, #-16]!
  400b94:	52900021 	mov	w1, #0x8001                	// #32769
  400b98:	52800000 	mov	w0, #0x0                   	// #0
  400b9c:	910003fd 	mov	x29, sp
  400ba0:	97ffffcc 	bl	400ad0 <check_one_fd>
  400ba4:	52900001 	mov	w1, #0x8000                	// #32768
  400ba8:	52800020 	mov	w0, #0x1                   	// #1
  400bac:	97ffffc9 	bl	400ad0 <check_one_fd>
  400bb0:	a8c17bfd 	ldp	x29, x30, [sp], #16
  400bb4:	52900001 	mov	w1, #0x8000                	// #32768
  400bb8:	52800040 	mov	w0, #0x2                   	// #2
  400bbc:	17ffffc5 	b	400ad0 <check_one_fd>

0000000000400bc0 <__libc_setup_tls>:
  400bc0:	a9b87bfd 	stp	x29, x30, [sp, #-128]!
  400bc4:	b0000460 	adrp	x0, 48d000 <_dl_main_map+0xe8>
  400bc8:	910003fd 	mov	x29, sp
  400bcc:	a90153f3 	stp	x19, x20, [sp, #16]
  400bd0:	a9025bf5 	stp	x21, x22, [sp, #32]
  400bd4:	a90363f7 	stp	x23, x24, [sp, #48]
  400bd8:	f9424818 	ldr	x24, [x0, #1168]
  400bdc:	a9046bf9 	stp	x25, x26, [sp, #64]
  400be0:	a90573fb 	stp	x27, x28, [sp, #80]
  400be4:	94006987 	bl	41b200 <__tls_pre_init_tp>
  400be8:	d0000480 	adrp	x0, 492000 <__pthread_keys+0x3868>
  400bec:	f9443001 	ldr	x1, [x0, #2144]
  400bf0:	b4000be1 	cbz	x1, 400d6c <__libc_setup_tls+0x1ac>
  400bf4:	d0000480 	adrp	x0, 492000 <__pthread_keys+0x3868>
  400bf8:	f9442c00 	ldr	x0, [x0, #2136]
  400bfc:	d37df002 	lsl	x2, x0, #3
  400c00:	cb000042 	sub	x2, x2, x0
  400c04:	8b020c22 	add	x2, x1, x2, lsl #3
  400c08:	eb02003f 	cmp	x1, x2
  400c0c:	540000a3 	b.cc	400c20 <__libc_setup_tls+0x60>  // b.lo, b.ul, b.last
  400c10:	14000057 	b	400d6c <__libc_setup_tls+0x1ac>
  400c14:	9100e021 	add	x1, x1, #0x38
  400c18:	eb02003f 	cmp	x1, x2
  400c1c:	54000a82 	b.cs	400d6c <__libc_setup_tls+0x1ac>  // b.hs, b.nlast
  400c20:	b9400020 	ldr	w0, [x1]
  400c24:	71001c1f 	cmp	w0, #0x7
  400c28:	54ffff61 	b.ne	400c14 <__libc_setup_tls+0x54>  // b.any
  400c2c:	f940183c 	ldr	x28, [x1, #48]
  400c30:	d280021b 	mov	x27, #0x10                  	// #16
  400c34:	f9400316 	ldr	x22, [x24]
  400c38:	eb1b039f 	cmp	x28, x27
  400c3c:	f9400822 	ldr	x2, [x1, #16]
  400c40:	9a9b2399 	csel	x25, x28, x27, cs  // cs = hs, nlast
  400c44:	d1000723 	sub	x3, x25, #0x1
  400c48:	d2800000 	mov	x0, #0x0                   	// #0
  400c4c:	8b0202d6 	add	x22, x22, x2
  400c50:	cb1903e2 	neg	x2, x25
  400c54:	a9068be3 	stp	x3, x2, [sp, #104]
  400c58:	a9425037 	ldp	x23, x20, [x1, #32]
  400c5c:	94006705 	bl	41a870 <_dl_tls_static_surplus_init>
  400c60:	f100039f 	cmp	x28, #0x0
  400c64:	d2800020 	mov	x0, #0x1                   	// #1
  400c68:	9a801385 	csel	x5, x28, x0, ne  // ne = any
  400c6c:	540009e0 	b.eq	400da8 <__libc_setup_tls+0x1e8>  // b.none
  400c70:	91003f83 	add	x3, x28, #0xf
  400c74:	9ac50863 	udiv	x3, x3, x5
  400c78:	9b057c7a 	mul	x26, x3, x5
  400c7c:	aa1a03fb 	mov	x27, x26
  400c80:	b0000466 	adrp	x6, 48d000 <_dl_main_map+0xe8>
  400c84:	8b190281 	add	x1, x20, x25
  400c88:	912520d3 	add	x19, x6, #0x948
  400c8c:	f9003fe5 	str	x5, [sp, #120]
  400c90:	f944a4c0 	ldr	x0, [x6, #2376]
  400c94:	911e4000 	add	x0, x0, #0x790
  400c98:	8b010000 	add	x0, x0, x1
  400c9c:	8b1a0000 	add	x0, x0, x26
  400ca0:	940061c4 	bl	4193b0 <__sbrk>
  400ca4:	911e4015 	add	x21, x0, #0x790
  400ca8:	d28007c8 	mov	x8, #0x3e                  	// #62
  400cac:	f94037e0 	ldr	x0, [sp, #104]
  400cb0:	f902431b 	str	x27, [x24, #1152]
  400cb4:	aa1703e2 	mov	x2, x23
  400cb8:	aa1603e1 	mov	x1, x22
  400cbc:	8b0002b5 	add	x21, x21, x0
  400cc0:	f9000668 	str	x8, [x19, #8]
  400cc4:	f9403be0 	ldr	x0, [sp, #112]
  400cc8:	8a0002b5 	and	x21, x21, x0
  400ccc:	8b1a02a0 	add	x0, x21, x26
  400cd0:	a902fe60 	stp	x0, xzr, [x19, #40]
  400cd4:	97fffd6b 	bl	400280 <.plt+0x10>
  400cd8:	91006260 	add	x0, x19, #0x18
  400cdc:	f90002a0 	str	x0, [x21]
  400ce0:	d51bd055 	msr	tpidr_el0, x21
  400ce4:	94006953 	bl	41b230 <__tls_init_tp>
  400ce8:	f9021a78 	str	x24, [x19, #1072]
  400cec:	91116304 	add	x4, x24, #0x458
  400cf0:	8b1c0280 	add	x0, x20, x28
  400cf4:	f100039f 	cmp	x28, #0x0
  400cf8:	d1000400 	sub	x0, x0, #0x1
  400cfc:	f9403fe5 	ldr	x5, [sp, #120]
  400d00:	a9017094 	stp	x20, x28, [x4, #16]
  400d04:	9a941014 	csel	x20, x0, x20, ne  // ne = any
  400d08:	b0000466 	adrp	x6, 48d000 <_dl_main_map+0xe8>
  400d0c:	91206263 	add	x3, x19, #0x818
  400d10:	a9005c96 	stp	x22, x23, [x4]
  400d14:	d2800021 	mov	x1, #0x1                   	// #1
  400d18:	91102262 	add	x2, x19, #0x408
  400d1c:	9ac50a94 	udiv	x20, x20, x5
  400d20:	a9000861 	stp	x1, x2, [x3]
  400d24:	f944a4c0 	ldr	x0, [x6, #2376]
  400d28:	d2800806 	mov	x6, #0x40                  	// #64
  400d2c:	9b056a94 	madd	x20, x20, x5, x26
  400d30:	a9020479 	stp	x25, x1, [x3, #32]
  400d34:	91003c00 	add	x0, x0, #0xf
  400d38:	8b140000 	add	x0, x0, x20
  400d3c:	f9020666 	str	x6, [x19, #1032]
  400d40:	927cec00 	and	x0, x0, #0xfffffffffffffff0
  400d44:	f9024701 	str	x1, [x24, #1160]
  400d48:	f9041660 	str	x0, [x19, #2088]
  400d4c:	f9041a74 	str	x20, [x19, #2096]
  400d50:	a94153f3 	ldp	x19, x20, [sp, #16]
  400d54:	a9425bf5 	ldp	x21, x22, [sp, #32]
  400d58:	a94363f7 	ldp	x23, x24, [sp, #48]
  400d5c:	a9446bf9 	ldp	x25, x26, [sp, #64]
  400d60:	a94573fb 	ldp	x27, x28, [sp, #80]
  400d64:	a8c87bfd 	ldp	x29, x30, [sp], #128
  400d68:	d65f03c0 	ret
  400d6c:	d2800000 	mov	x0, #0x0                   	// #0
  400d70:	940066c0 	bl	41a870 <_dl_tls_static_surplus_init>
  400d74:	928001e0 	mov	x0, #0xfffffffffffffff0    	// #-16
  400d78:	d280021b 	mov	x27, #0x10                  	// #16
  400d7c:	d2800025 	mov	x5, #0x1                   	// #1
  400d80:	aa1b03fa 	mov	x26, x27
  400d84:	aa1b03f9 	mov	x25, x27
  400d88:	d280001c 	mov	x28, #0x0                   	// #0
  400d8c:	d2800016 	mov	x22, #0x0                   	// #0
  400d90:	d2800017 	mov	x23, #0x0                   	// #0
  400d94:	d2800014 	mov	x20, #0x0                   	// #0
  400d98:	f9003be0 	str	x0, [sp, #112]
  400d9c:	d28001e0 	mov	x0, #0xf                   	// #15
  400da0:	f90037e0 	str	x0, [sp, #104]
  400da4:	17ffffb7 	b	400c80 <__libc_setup_tls+0xc0>
  400da8:	aa0003e5 	mov	x5, x0
  400dac:	aa1b03fa 	mov	x26, x27
  400db0:	aa1b03f9 	mov	x25, x27
  400db4:	17ffffb3 	b	400c80 <__libc_setup_tls+0xc0>
  400db8:	d503201f 	nop
  400dbc:	d503201f 	nop

0000000000400dc0 <__tls_get_addr>:
  400dc0:	d53bd041 	mrs	x1, tpidr_el0
  400dc4:	f9400400 	ldr	x0, [x0, #8]
  400dc8:	f9400021 	ldr	x1, [x1]
  400dcc:	f9400821 	ldr	x1, [x1, #16]
  400dd0:	8b000020 	add	x0, x1, x0
  400dd4:	d65f03c0 	ret
  400dd8:	d503201f 	nop
  400ddc:	d503201f 	nop

0000000000400de0 <__assert_fail_base>:
  400de0:	d10183ff 	sub	sp, sp, #0x60
  400de4:	a9017bfd 	stp	x29, x30, [sp, #16]
  400de8:	910043fd 	add	x29, sp, #0x10
  400dec:	a90253f3 	stp	x19, x20, [sp, #32]
  400df0:	aa0003f4 	mov	x20, x0
  400df4:	aa0403f3 	mov	x19, x4
  400df8:	52800020 	mov	w0, #0x1                   	// #1
  400dfc:	a9035bf5 	stp	x21, x22, [sp, #48]
  400e00:	aa0203f5 	mov	x21, x2
  400e04:	2a0303f6 	mov	w22, w3
  400e08:	f90023f7 	str	x23, [sp, #64]
  400e0c:	aa0103f7 	mov	x23, x1
  400e10:	d2800001 	mov	x1, #0x0                   	// #0
  400e14:	9400367f 	bl	40e810 <__pthread_setcancelstate>
  400e18:	90000460 	adrp	x0, 48c000 <.got.plt+0x18>
  400e1c:	b0000326 	adrp	x6, 465000 <translit_from_idx+0x17e0>
  400e20:	f0000287 	adrp	x7, 453000 <cpu_list+0x98>
  400e24:	9114a0c6 	add	x6, x6, #0x528
  400e28:	f9477c02 	ldr	x2, [x0, #3832]
  400e2c:	9100a0e7 	add	x7, x7, #0x28
  400e30:	39400040 	ldrb	w0, [x2]
  400e34:	7100001f 	cmp	w0, #0x0
  400e38:	9a8610e3 	csel	x3, x7, x6, ne  // ne = any
  400e3c:	b40006f3 	cbz	x19, 400f18 <__assert_fail_base+0x138>
  400e40:	910153e0 	add	x0, sp, #0x54
  400e44:	a90003f7 	stp	x23, x0, [sp]
  400e48:	aa1303e6 	mov	x6, x19
  400e4c:	2a1603e5 	mov	w5, w22
  400e50:	aa1503e4 	mov	x4, x21
  400e54:	aa1403e1 	mov	x1, x20
  400e58:	910163e0 	add	x0, sp, #0x58
  400e5c:	940014b5 	bl	406130 <___asprintf>
  400e60:	37f80500 	tbnz	w0, #31, 400f00 <__assert_fail_base+0x120>
  400e64:	f9402fe2 	ldr	x2, [sp, #88]
  400e68:	f0000281 	adrp	x1, 453000 <cpu_list+0x98>
  400e6c:	d2800000 	mov	x0, #0x0                   	// #0
  400e70:	9100c021 	add	x1, x1, #0x30
  400e74:	94001577 	bl	406450 <__fxprintf>
  400e78:	90000460 	adrp	x0, 48c000 <.got.plt+0x18>
  400e7c:	f942e000 	ldr	x0, [x0, #1472]
  400e80:	94001674 	bl	406850 <_IO_fflush>
  400e84:	90000460 	adrp	x0, 48c000 <.got.plt+0x18>
  400e88:	b94057e1 	ldr	w1, [sp, #84]
  400e8c:	d2800005 	mov	x5, #0x0                   	// #0
  400e90:	12800004 	mov	w4, #0xffffffff            	// #-1
  400e94:	f9478800 	ldr	x0, [x0, #3856]
  400e98:	52800443 	mov	w3, #0x22                  	// #34
  400e9c:	52800062 	mov	w2, #0x3                   	// #3
  400ea0:	0b000021 	add	w1, w1, w0
  400ea4:	4b0003e0 	neg	w0, w0
  400ea8:	0a000021 	and	w1, w1, w0
  400eac:	d2800000 	mov	x0, #0x0                   	// #0
  400eb0:	b90057e1 	str	w1, [sp, #84]
  400eb4:	93407c21 	sxtw	x1, w1
  400eb8:	94006186 	bl	4194d0 <__mmap64>
  400ebc:	aa0003f3 	mov	x19, x0
  400ec0:	b100041f 	cmn	x0, #0x1
  400ec4:	54000180 	b.eq	400ef4 <__assert_fail_base+0x114>  // b.none
  400ec8:	b94057e2 	ldr	w2, [sp, #84]
  400ecc:	f9402fe1 	ldr	x1, [sp, #88]
  400ed0:	b8004402 	str	w2, [x0], #4
  400ed4:	94004c1b 	bl	413f40 <strcpy>
  400ed8:	d0000461 	adrp	x1, 48e000 <static_slotinfo+0x2b0>
  400edc:	aa1303e0 	mov	x0, x19
  400ee0:	910be021 	add	x1, x1, #0x2f8
  400ee4:	9401300b 	bl	44cf10 <__aarch64_swp8_acq>
  400ee8:	b4000060 	cbz	x0, 400ef4 <__assert_fail_base+0x114>
  400eec:	b9400001 	ldr	w1, [x0]
  400ef0:	94006194 	bl	419540 <__munmap>
  400ef4:	f9402fe0 	ldr	x0, [sp, #88]
  400ef8:	940046b2 	bl	4129c0 <__free>
  400efc:	97fffd01 	bl	400300 <abort>
  400f00:	f0000281 	adrp	x1, 453000 <cpu_list+0x98>
  400f04:	9101a021 	add	x1, x1, #0x68
  400f08:	d2800242 	mov	x2, #0x12                  	// #18
  400f0c:	52800040 	mov	w0, #0x2                   	// #2
  400f10:	94005e90 	bl	418950 <__libc_write>
  400f14:	97fffcfb 	bl	400300 <abort>
  400f18:	aa0603f3 	mov	x19, x6
  400f1c:	aa0603e7 	mov	x7, x6
  400f20:	17ffffc8 	b	400e40 <__assert_fail_base+0x60>

0000000000400f24 <__assert_fail>:
  400f24:	a9bd7bfd 	stp	x29, x30, [sp, #-48]!
  400f28:	910003fd 	mov	x29, sp
  400f2c:	a90153f3 	stp	x19, x20, [sp, #16]
  400f30:	aa0003f3 	mov	x19, x0
  400f34:	aa0103f4 	mov	x20, x1
  400f38:	b0000320 	adrp	x0, 465000 <translit_from_idx+0x17e0>
  400f3c:	f0000281 	adrp	x1, 453000 <cpu_list+0x98>
  400f40:	91084000 	add	x0, x0, #0x210
  400f44:	9100e021 	add	x1, x1, #0x38
  400f48:	a9025bf5 	stp	x21, x22, [sp, #32]
  400f4c:	aa0303f6 	mov	x22, x3
  400f50:	2a0203f5 	mov	w21, w2
  400f54:	528000a2 	mov	w2, #0x5                   	// #5
  400f58:	94000006 	bl	400f70 <__dcgettext>
  400f5c:	aa1603e4 	mov	x4, x22
  400f60:	2a1503e3 	mov	w3, w21
  400f64:	aa1403e2 	mov	x2, x20
  400f68:	aa1303e1 	mov	x1, x19
  400f6c:	97ffff9d 	bl	400de0 <__assert_fail_base>

0000000000400f70 <__dcgettext>:
  400f70:	2a0203e5 	mov	w5, w2
  400f74:	d2800004 	mov	x4, #0x0                   	// #0
  400f78:	52800003 	mov	w3, #0x0                   	// #0
  400f7c:	d2800002 	mov	x2, #0x0                   	// #0
  400f80:	1400028c 	b	4019b0 <__dcigettext>
  400f84:	d503201f 	nop
  400f88:	d503201f 	nop
  400f8c:	d503201f 	nop

0000000000400f90 <plural_eval>:
  400f90:	a9bd7bfd 	stp	x29, x30, [sp, #-48]!
  400f94:	910003fd 	mov	x29, sp
  400f98:	a90153f3 	stp	x19, x20, [sp, #16]
  400f9c:	aa0003f3 	mov	x19, x0
  400fa0:	aa0103f4 	mov	x20, x1
  400fa4:	f90013f5 	str	x21, [sp, #32]
  400fa8:	b9400260 	ldr	w0, [x19]
  400fac:	7100081f 	cmp	w0, #0x2
  400fb0:	54000360 	b.eq	40101c <plural_eval+0x8c>  // b.none
  400fb4:	540001cc 	b.gt	400fec <plural_eval+0x5c>
  400fb8:	340006c0 	cbz	w0, 401090 <plural_eval+0x100>
  400fbc:	7100041f 	cmp	w0, #0x1
  400fc0:	54000721 	b.ne	4010a4 <plural_eval+0x114>  // b.any
  400fc4:	f9400660 	ldr	x0, [x19, #8]
  400fc8:	aa1403e1 	mov	x1, x20
  400fcc:	97fffff1 	bl	400f90 <plural_eval>
  400fd0:	f100001f 	cmp	x0, #0x0
  400fd4:	9a9f17f5 	cset	x21, eq  // eq = none
  400fd8:	aa1503e0 	mov	x0, x21
  400fdc:	a94153f3 	ldp	x19, x20, [sp, #16]
  400fe0:	f94013f5 	ldr	x21, [sp, #32]
  400fe4:	a8c37bfd 	ldp	x29, x30, [sp], #48
  400fe8:	d65f03c0 	ret
  400fec:	aa1403e1 	mov	x1, x20
  400ff0:	71000c1f 	cmp	w0, #0x3
  400ff4:	54000581 	b.ne	4010a4 <plural_eval+0x114>  // b.any
  400ff8:	f9400660 	ldr	x0, [x19, #8]
  400ffc:	97ffffe5 	bl	400f90 <plural_eval>
  401000:	f100001f 	cmp	x0, #0x0
  401004:	9a9f17e0 	cset	x0, eq  // eq = none
  401008:	8b000e60 	add	x0, x19, x0, lsl #3
  40100c:	f9400813 	ldr	x19, [x0, #16]
  401010:	b9400260 	ldr	w0, [x19]
  401014:	7100081f 	cmp	w0, #0x2
  401018:	54fffce1 	b.ne	400fb4 <plural_eval+0x24>  // b.any
  40101c:	f9400660 	ldr	x0, [x19, #8]
  401020:	aa1403e1 	mov	x1, x20
  401024:	97ffffdb 	bl	400f90 <plural_eval>
  401028:	aa0003f5 	mov	x21, x0
  40102c:	b9400661 	ldr	w1, [x19, #4]
  401030:	71003c3f 	cmp	w1, #0xf
  401034:	54000480 	b.eq	4010c4 <plural_eval+0x134>  // b.none
  401038:	7100383f 	cmp	w1, #0xe
  40103c:	540007a0 	b.eq	401130 <plural_eval+0x1a0>  // b.none
  401040:	f9400a60 	ldr	x0, [x19, #16]
  401044:	aa1403e1 	mov	x1, x20
  401048:	97ffffd2 	bl	400f90 <plural_eval>
  40104c:	b9400661 	ldr	w1, [x19, #4]
  401050:	aa0003f3 	mov	x19, x0
  401054:	7100203f 	cmp	w1, #0x8
  401058:	54000900 	b.eq	401178 <plural_eval+0x1e8>  // b.none
  40105c:	54000488 	b.hi	4010ec <plural_eval+0x15c>  // b.pmore
  401060:	7100143f 	cmp	w1, #0x5
  401064:	54000820 	b.eq	401168 <plural_eval+0x1d8>  // b.none
  401068:	54000349 	b.ls	4010d0 <plural_eval+0x140>  // b.plast
  40106c:	cb0002a0 	sub	x0, x21, x0
  401070:	7100183f 	cmp	w1, #0x6
  401074:	8b1302b5 	add	x21, x21, x19
  401078:	9a8002b5 	csel	x21, x21, x0, eq  // eq = none
  40107c:	aa1503e0 	mov	x0, x21
  401080:	a94153f3 	ldp	x19, x20, [sp, #16]
  401084:	f94013f5 	ldr	x21, [sp, #32]
  401088:	a8c37bfd 	ldp	x29, x30, [sp], #48
  40108c:	d65f03c0 	ret
  401090:	b9400660 	ldr	w0, [x19, #4]
  401094:	aa1403f5 	mov	x21, x20
  401098:	34fffa00 	cbz	w0, 400fd8 <plural_eval+0x48>
  40109c:	7100041f 	cmp	w0, #0x1
  4010a0:	540000e0 	b.eq	4010bc <plural_eval+0x12c>  // b.none
  4010a4:	d2800015 	mov	x21, #0x0                   	// #0
  4010a8:	aa1503e0 	mov	x0, x21
  4010ac:	a94153f3 	ldp	x19, x20, [sp, #16]
  4010b0:	f94013f5 	ldr	x21, [sp, #32]
  4010b4:	a8c37bfd 	ldp	x29, x30, [sp], #48
  4010b8:	d65f03c0 	ret
  4010bc:	f9400675 	ldr	x21, [x19, #8]
  4010c0:	17ffffc6 	b	400fd8 <plural_eval+0x48>
  4010c4:	b4000380 	cbz	x0, 401134 <plural_eval+0x1a4>
  4010c8:	d2800035 	mov	x21, #0x1                   	// #1
  4010cc:	17ffffc3 	b	400fd8 <plural_eval+0x48>
  4010d0:	71000c3f 	cmp	w1, #0x3
  4010d4:	54000580 	b.eq	401184 <plural_eval+0x1f4>  // b.none
  4010d8:	7100103f 	cmp	w1, #0x4
  4010dc:	54fffe41 	b.ne	4010a4 <plural_eval+0x114>  // b.any
  4010e0:	b4000360 	cbz	x0, 40114c <plural_eval+0x1bc>
  4010e4:	9ad30ab5 	udiv	x21, x21, x19
  4010e8:	17ffffbc 	b	400fd8 <plural_eval+0x48>
  4010ec:	71002c3f 	cmp	w1, #0xb
  4010f0:	54000360 	b.eq	40115c <plural_eval+0x1cc>  // b.none
  4010f4:	54000109 	b.ls	401114 <plural_eval+0x184>  // b.plast
  4010f8:	7100303f 	cmp	w1, #0xc
  4010fc:	54000480 	b.eq	40118c <plural_eval+0x1fc>  // b.none
  401100:	7100343f 	cmp	w1, #0xd
  401104:	54fffd01 	b.ne	4010a4 <plural_eval+0x114>  // b.any
  401108:	eb0002bf 	cmp	x21, x0
  40110c:	9a9f07f5 	cset	x21, ne  // ne = any
  401110:	17ffffb2 	b	400fd8 <plural_eval+0x48>
  401114:	7100243f 	cmp	w1, #0x9
  401118:	54000400 	b.eq	401198 <plural_eval+0x208>  // b.none
  40111c:	7100283f 	cmp	w1, #0xa
  401120:	54fffc21 	b.ne	4010a4 <plural_eval+0x114>  // b.any
  401124:	eb0002bf 	cmp	x21, x0
  401128:	9a9f87f5 	cset	x21, ls  // ls = plast
  40112c:	17ffffab 	b	400fd8 <plural_eval+0x48>
  401130:	b4fff540 	cbz	x0, 400fd8 <plural_eval+0x48>
  401134:	f9400a60 	ldr	x0, [x19, #16]
  401138:	aa1403e1 	mov	x1, x20
  40113c:	97ffff95 	bl	400f90 <plural_eval>
  401140:	f100001f 	cmp	x0, #0x0
  401144:	9a9f07f5 	cset	x21, ne  // ne = any
  401148:	17ffffa4 	b	400fd8 <plural_eval+0x48>
  40114c:	52800100 	mov	w0, #0x8                   	// #8
  401150:	94000f58 	bl	404eb0 <raise>
  401154:	9ad30ab5 	udiv	x21, x21, x19
  401158:	17ffffa0 	b	400fd8 <plural_eval+0x48>
  40115c:	eb0002bf 	cmp	x21, x0
  401160:	9a9f37f5 	cset	x21, cs  // cs = hs, nlast
  401164:	17ffff9d 	b	400fd8 <plural_eval+0x48>
  401168:	b40001e0 	cbz	x0, 4011a4 <plural_eval+0x214>
  40116c:	9ad30aa0 	udiv	x0, x21, x19
  401170:	9b13d415 	msub	x21, x0, x19, x21
  401174:	17ffff99 	b	400fd8 <plural_eval+0x48>
  401178:	eb0002bf 	cmp	x21, x0
  40117c:	9a9f27f5 	cset	x21, cc  // cc = lo, ul, last
  401180:	17ffff96 	b	400fd8 <plural_eval+0x48>
  401184:	9b007eb5 	mul	x21, x21, x0
  401188:	17ffff94 	b	400fd8 <plural_eval+0x48>
  40118c:	eb0002bf 	cmp	x21, x0
  401190:	9a9f17f5 	cset	x21, eq  // eq = none
  401194:	17ffff91 	b	400fd8 <plural_eval+0x48>
  401198:	eb0002bf 	cmp	x21, x0
  40119c:	9a9f97f5 	cset	x21, hi  // hi = pmore
  4011a0:	17ffff8e 	b	400fd8 <plural_eval+0x48>
  4011a4:	52800100 	mov	w0, #0x8                   	// #8
  4011a8:	94000f42 	bl	404eb0 <raise>
  4011ac:	17fffff0 	b	40116c <plural_eval+0x1dc>

00000000004011b0 <transcmp>:
  4011b0:	a9be7bfd 	stp	x29, x30, [sp, #-32]!
  4011b4:	910003fd 	mov	x29, sp
  4011b8:	a90153f3 	stp	x19, x20, [sp, #16]
  4011bc:	aa0003f4 	mov	x20, x0
  4011c0:	aa0103f3 	mov	x19, x1
  4011c4:	f9401000 	ldr	x0, [x0, #32]
  4011c8:	b40002e0 	cbz	x0, 401224 <transcmp+0x74>
  4011cc:	9100e280 	add	x0, x20, #0x38
  4011d0:	f9401261 	ldr	x1, [x19, #32]
  4011d4:	b4000241 	cbz	x1, 40121c <transcmp+0x6c>
  4011d8:	9100e261 	add	x1, x19, #0x38
  4011dc:	94004b09 	bl	413e00 <strcmp>
  4011e0:	35000180 	cbnz	w0, 401210 <transcmp+0x60>
  4011e4:	f9400261 	ldr	x1, [x19]
  4011e8:	f9400280 	ldr	x0, [x20]
  4011ec:	94004b05 	bl	413e00 <strcmp>
  4011f0:	35000100 	cbnz	w0, 401210 <transcmp+0x60>
  4011f4:	f9400a61 	ldr	x1, [x19, #16]
  4011f8:	f9400a80 	ldr	x0, [x20, #16]
  4011fc:	94004b01 	bl	413e00 <strcmp>
  401200:	35000080 	cbnz	w0, 401210 <transcmp+0x60>
  401204:	b9400a61 	ldr	w1, [x19, #8]
  401208:	b9400a80 	ldr	w0, [x20, #8]
  40120c:	4b010000 	sub	w0, w0, w1
  401210:	a94153f3 	ldp	x19, x20, [sp, #16]
  401214:	a8c27bfd 	ldp	x29, x30, [sp], #32
  401218:	d65f03c0 	ret
  40121c:	f9401e61 	ldr	x1, [x19, #56]
  401220:	17ffffef 	b	4011dc <transcmp+0x2c>
  401224:	f9401e80 	ldr	x0, [x20, #56]
  401228:	17ffffea 	b	4011d0 <transcmp+0x20>
  40122c:	d503201f 	nop

0000000000401230 <_nl_find_msg>:
  401230:	a9b47bfd 	stp	x29, x30, [sp, #-192]!
  401234:	910003fd 	mov	x29, sp
  401238:	a9046bf9 	stp	x25, x26, [sp, #64]
  40123c:	aa0203f9 	mov	x25, x2
  401240:	b9400802 	ldr	w2, [x0, #8]
  401244:	a90153f3 	stp	x19, x20, [sp, #16]
  401248:	a9025bf5 	stp	x21, x22, [sp, #32]
  40124c:	a90363f7 	stp	x23, x24, [sp, #48]
  401250:	a90573fb 	stp	x27, x28, [sp, #80]
  401254:	a90613a1 	stp	x1, x4, [x29, #96]
  401258:	b90077a3 	str	w3, [x29, #116]
  40125c:	f9003fa0 	str	x0, [x29, #120]
  401260:	7100005f 	cmp	w2, #0x0
  401264:	5400100d 	b.le	401464 <_nl_find_msg+0x234>
  401268:	f9403fa0 	ldr	x0, [x29, #120]
  40126c:	f9400816 	ldr	x22, [x0, #16]
  401270:	b4000d76 	cbz	x22, 40141c <_nl_find_msg+0x1ec>
  401274:	f94032c0 	ldr	x0, [x22, #96]
  401278:	b9402ad3 	ldr	w19, [x22, #40]
  40127c:	b40009c0 	cbz	x0, 4013b4 <_nl_find_msg+0x184>
  401280:	aa1903e0 	mov	x0, x25
  401284:	97fffc13 	bl	4002d0 <.plt+0x60>
  401288:	aa0003fa 	mov	x26, x0
  40128c:	aa1903e0 	mov	x0, x25
  401290:	94000e9c 	bl	404d00 <__hash_string>
  401294:	aa1a03f5 	mov	x21, x26
  401298:	b9405ac2 	ldr	w2, [x22, #88]
  40129c:	92407f43 	and	x3, x26, #0xffffffff
  4012a0:	f90043a3 	str	x3, [x29, #128]
  4012a4:	51000841 	sub	w1, w2, #0x2
  4012a8:	b9406ada 	ldr	w26, [x22, #104]
  4012ac:	b9008bb5 	str	w21, [x29, #136]
  4012b0:	1ac2081c 	udiv	w28, w0, w2
  4012b4:	f94032d4 	ldr	x20, [x22, #96]
  4012b8:	1ac10803 	udiv	w3, w0, w1
  4012bc:	1b02839c 	msub	w28, w28, w2, w0
  4012c0:	1b018063 	msub	w3, w3, w1, w0
  4012c4:	11000478 	add	w24, w3, #0x1
  4012c8:	4b18005b 	sub	w27, w2, w24
  4012cc:	4b020315 	sub	w21, w24, w2
  4012d0:	14000016 	b	401328 <_nl_find_msg+0xf8>
  4012d4:	b9401ac9 	ldr	w9, [x22, #24]
  4012d8:	d37d7ee0 	ubfiz	x0, x23, #3, #32
  4012dc:	f9401ac1 	ldr	x1, [x22, #48]
  4012e0:	8b00002a 	add	x10, x1, x0
  4012e4:	b8606820 	ldr	w0, [x1, x0]
  4012e8:	34000b29 	cbz	w9, 40144c <_nl_find_msg+0x21c>
  4012ec:	b9408ba1 	ldr	w1, [x29, #136]
  4012f0:	5ac00800 	rev	w0, w0
  4012f4:	6b00003f 	cmp	w1, w0
  4012f8:	54000108 	b.hi	401318 <_nl_find_msg+0xe8>  // b.pmore
  4012fc:	b9400540 	ldr	w0, [x10, #4]
  401300:	f94002c1 	ldr	x1, [x22]
  401304:	5ac00800 	rev	w0, w0
  401308:	8b000021 	add	x1, x1, x0
  40130c:	aa1903e0 	mov	x0, x25
  401310:	94004abc 	bl	413e00 <strcmp>
  401314:	34000320 	cbz	w0, 401378 <_nl_find_msg+0x148>
  401318:	6b1c037f 	cmp	w27, w28
  40131c:	0b150380 	add	w0, w28, w21
  401320:	0b18039c 	add	w28, w28, w24
  401324:	1a80839c 	csel	w28, w28, w0, hi  // hi = pmore
  401328:	b87c5a81 	ldr	w1, [x20, w28, uxtw #2]
  40132c:	7100035f 	cmp	w26, #0x0
  401330:	5ac00820 	rev	w0, w1
  401334:	1a811001 	csel	w1, w0, w1, ne  // ne = any
  401338:	34000721 	cbz	w1, 40141c <_nl_find_msg+0x1ec>
  40133c:	51000437 	sub	w23, w1, #0x1
  401340:	6b17027f 	cmp	w19, w23
  401344:	54fffc88 	b.hi	4012d4 <_nl_find_msg+0xa4>  // b.pmore
  401348:	4b1302e0 	sub	w0, w23, w19
  40134c:	f94026c1 	ldr	x1, [x22, #72]
  401350:	d37cec00 	lsl	x0, x0, #4
  401354:	8b000026 	add	x6, x1, x0
  401358:	f8606820 	ldr	x0, [x1, x0]
  40135c:	f94043a1 	ldr	x1, [x29, #128]
  401360:	eb01001f 	cmp	x0, x1
  401364:	54fffda9 	b.ls	401318 <_nl_find_msg+0xe8>  // b.plast
  401368:	f94004c1 	ldr	x1, [x6, #8]
  40136c:	aa1903e0 	mov	x0, x25
  401370:	94004aa4 	bl	413e00 <strcmp>
  401374:	35fffd20 	cbnz	w0, 401318 <_nl_find_msg+0xe8>
  401378:	aa1703f5 	mov	x21, x23
  40137c:	2a1303fa 	mov	w26, w19
  401380:	eb15035f 	cmp	x26, x21
  401384:	54000748 	b.hi	40146c <_nl_find_msg+0x23c>  // b.pmore
  401388:	cb1a02ba 	sub	x26, x21, x26
  40138c:	f9402ac0 	ldr	x0, [x22, #80]
  401390:	d37cef5a 	lsl	x26, x26, #4
  401394:	8b1a0001 	add	x1, x0, x26
  401398:	f87a681a 	ldr	x26, [x0, x26]
  40139c:	f9400437 	ldr	x23, [x1, #8]
  4013a0:	b94077a0 	ldr	w0, [x29, #116]
  4013a4:	350007e0 	cbnz	w0, 4014a0 <_nl_find_msg+0x270>
  4013a8:	f94037a0 	ldr	x0, [x29, #104]
  4013ac:	f900001a 	str	x26, [x0]
  4013b0:	1400001c 	b	401420 <_nl_find_msg+0x1f0>
  4013b4:	2a1303fa 	mov	w26, w19
  4013b8:	d280001b 	mov	x27, #0x0                   	// #0
  4013bc:	aa1a03fc 	mov	x28, x26
  4013c0:	8b1b0386 	add	x6, x28, x27
  4013c4:	aa1903e0 	mov	x0, x25
  4013c8:	eb1b039f 	cmp	x28, x27
  4013cc:	54000289 	b.ls	40141c <_nl_find_msg+0x1ec>  // b.plast
  4013d0:	f9401ac2 	ldr	x2, [x22, #48]
  4013d4:	d341fcd5 	lsr	x21, x6, #1
  4013d8:	b9401ac3 	ldr	w3, [x22, #24]
  4013dc:	f94002c1 	ldr	x1, [x22]
  4013e0:	8b150c42 	add	x2, x2, x21, lsl #3
  4013e4:	7100007f 	cmp	w3, #0x0
  4013e8:	b9400442 	ldr	w2, [x2, #4]
  4013ec:	5ac00843 	rev	w3, w2
  4013f0:	1a830042 	csel	w2, w2, w3, eq  // eq = none
  4013f4:	8b020021 	add	x1, x1, x2
  4013f8:	94004a82 	bl	413e00 <strcmp>
  4013fc:	7100001f 	cmp	w0, #0x0
  401400:	5400022b 	b.lt	401444 <_nl_find_msg+0x214>  // b.tstop
  401404:	54fffbe0 	b.eq	401380 <_nl_find_msg+0x150>  // b.none
  401408:	910006bb 	add	x27, x21, #0x1
  40140c:	aa1903e0 	mov	x0, x25
  401410:	8b1b0386 	add	x6, x28, x27
  401414:	eb1b039f 	cmp	x28, x27
  401418:	54fffdc8 	b.hi	4013d0 <_nl_find_msg+0x1a0>  // b.pmore
  40141c:	d2800017 	mov	x23, #0x0                   	// #0
  401420:	910003bf 	mov	sp, x29
  401424:	aa1703e0 	mov	x0, x23
  401428:	a94153f3 	ldp	x19, x20, [sp, #16]
  40142c:	a9425bf5 	ldp	x21, x22, [sp, #32]
  401430:	a94363f7 	ldp	x23, x24, [sp, #48]
  401434:	a9446bf9 	ldp	x25, x26, [sp, #64]
  401438:	a94573fb 	ldp	x27, x28, [sp, #80]
  40143c:	a8cc7bfd 	ldp	x29, x30, [sp], #192
  401440:	d65f03c0 	ret
  401444:	aa1503fc 	mov	x28, x21
  401448:	17ffffde 	b	4013c0 <_nl_find_msg+0x190>
  40144c:	b9408ba1 	ldr	w1, [x29, #136]
  401450:	6b00003f 	cmp	w1, w0
  401454:	54fff628 	b.hi	401318 <_nl_find_msg+0xe8>  // b.pmore
  401458:	b9400540 	ldr	w0, [x10, #4]
  40145c:	f94002c1 	ldr	x1, [x22]
  401460:	17ffffaa 	b	401308 <_nl_find_msg+0xd8>
  401464:	9400039f 	bl	4022e0 <_nl_load_domain>
  401468:	17ffff80 	b	401268 <_nl_find_msg+0x38>
  40146c:	f9401ec1 	ldr	x1, [x22, #56]
  401470:	d37df2a0 	lsl	x0, x21, #3
  401474:	b9401ac2 	ldr	w2, [x22, #24]
  401478:	8b000023 	add	x3, x1, x0
  40147c:	b860683a 	ldr	w26, [x1, x0]
  401480:	f94002d7 	ldr	x23, [x22]
  401484:	b9400460 	ldr	w0, [x3, #4]
  401488:	340006c2 	cbz	w2, 401560 <_nl_find_msg+0x330>
  40148c:	5ac00800 	rev	w0, w0
  401490:	5ac00b5a 	rev	w26, w26
  401494:	8b0002f7 	add	x23, x23, x0
  401498:	1100075a 	add	w26, w26, #0x1
  40149c:	17ffffc1 	b	4013a0 <_nl_find_msg+0x170>
  4014a0:	f94033a0 	ldr	x0, [x29, #96]
  4014a4:	b4000440 	cbz	x0, 40152c <_nl_find_msg+0x2fc>
  4014a8:	f9400818 	ldr	x24, [x0, #16]
  4014ac:	b4000418 	cbz	x24, 40152c <_nl_find_msg+0x2fc>
  4014b0:	910202c0 	add	x0, x22, #0x80
  4014b4:	f90043a0 	str	x0, [x29, #128]
  4014b8:	94003276 	bl	40de90 <___pthread_rwlock_rdlock>
  4014bc:	f9403edb 	ldr	x27, [x22, #120]
  4014c0:	8b1b077c 	add	x28, x27, x27, lsl #1
  4014c4:	d37df39c 	lsl	x28, x28, #3
  4014c8:	d100639c 	sub	x28, x28, #0x18
  4014cc:	d503201f 	nop
  4014d0:	b4000edb 	cbz	x27, 4016a8 <_nl_find_msg+0x478>
  4014d4:	f9403ac0 	ldr	x0, [x22, #112]
  4014d8:	d100077b 	sub	x27, x27, #0x1
  4014dc:	aa1803e1 	mov	x1, x24
  4014e0:	8b1c0019 	add	x25, x0, x28
  4014e4:	f87c6800 	ldr	x0, [x0, x28]
  4014e8:	d100639c 	sub	x28, x28, #0x18
  4014ec:	94004a45 	bl	413e00 <strcmp>
  4014f0:	35ffff00 	cbnz	w0, 4014d0 <_nl_find_msg+0x2a0>
  4014f4:	f94043a0 	ldr	x0, [x29, #128]
  4014f8:	94003312 	bl	40e140 <___pthread_rwlock_unlock>
  4014fc:	f9400720 	ldr	x0, [x25, #8]
  401500:	b100041f 	cmn	x0, #0x1
  401504:	54fff520 	b.eq	4013a8 <_nl_find_msg+0x178>  // b.none
  401508:	f9400b20 	ldr	x0, [x25, #16]
  40150c:	b4001980 	cbz	x0, 40183c <_nl_find_msg+0x60c>
  401510:	b100041f 	cmn	x0, #0x1
  401514:	54001be0 	b.eq	401890 <_nl_find_msg+0x660>  // b.none
  401518:	f8757800 	ldr	x0, [x0, x21, lsl #3]
  40151c:	b4000560 	cbz	x0, 4015c8 <_nl_find_msg+0x398>
  401520:	aa0003f7 	mov	x23, x0
  401524:	f84086fa 	ldr	x26, [x23], #8
  401528:	17ffffa0 	b	4013a8 <_nl_find_msg+0x178>
  40152c:	b000047b 	adrp	x27, 48e000 <static_slotinfo+0x2b0>
  401530:	9106a37b 	add	x27, x27, #0x1a8
  401534:	b9401b60 	ldr	w0, [x27, #24]
  401538:	340001a0 	cbz	w0, 40156c <_nl_find_msg+0x33c>
  40153c:	f9401378 	ldr	x24, [x27, #32]
  401540:	b5fffb98 	cbnz	x24, 4014b0 <_nl_find_msg+0x280>
  401544:	d0000440 	adrp	x0, 48b000 <__FRAME_END__+0x103d8>
  401548:	f947c400 	ldr	x0, [x0, #3976]
  40154c:	d53bd041 	mrs	x1, tpidr_el0
  401550:	f8606820 	ldr	x0, [x1, x0]
  401554:	f9400000 	ldr	x0, [x0]
  401558:	f9405818 	ldr	x24, [x0, #176]
  40155c:	17ffffd5 	b	4014b0 <_nl_find_msg+0x280>
  401560:	8b2042f7 	add	x23, x23, w0, uxtw
  401564:	1100075a 	add	w26, w26, #0x1
  401568:	17ffff8e 	b	4013a0 <_nl_find_msg+0x170>
  40156c:	d0000280 	adrp	x0, 453000 <cpu_list+0x98>
  401570:	91020000 	add	x0, x0, #0x80
  401574:	94000fe3 	bl	405500 <getenv>
  401578:	aa0003f9 	mov	x25, x0
  40157c:	b4000060 	cbz	x0, 401588 <_nl_find_msg+0x358>
  401580:	39400001 	ldrb	w1, [x0]
  401584:	350000c1 	cbnz	w1, 40159c <_nl_find_msg+0x36c>
  401588:	f9401378 	ldr	x24, [x27, #32]
  40158c:	52800020 	mov	w0, #0x1                   	// #1
  401590:	b9001b60 	str	w0, [x27, #24]
  401594:	b5fff8f8 	cbnz	x24, 4014b0 <_nl_find_msg+0x280>
  401598:	17ffffeb 	b	401544 <_nl_find_msg+0x314>
  40159c:	97fffb4d 	bl	4002d0 <.plt+0x60>
  4015a0:	9100041c 	add	x28, x0, #0x1
  4015a4:	aa1c03e0 	mov	x0, x28
  4015a8:	940043b6 	bl	412480 <__libc_malloc>
  4015ac:	aa0003f8 	mov	x24, x0
  4015b0:	b4000080 	cbz	x0, 4015c0 <_nl_find_msg+0x390>
  4015b4:	aa1c03e2 	mov	x2, x28
  4015b8:	aa1903e1 	mov	x1, x25
  4015bc:	97fffb31 	bl	400280 <.plt+0x10>
  4015c0:	f9001378 	str	x24, [x27, #32]
  4015c4:	17fffff2 	b	40158c <_nl_find_msg+0x35c>
  4015c8:	b000047b 	adrp	x27, 48e000 <static_slotinfo+0x2b0>
  4015cc:	9106a37b 	add	x27, x27, #0x1a8
  4015d0:	9100a373 	add	x19, x27, #0x28
  4015d4:	52800021 	mov	w1, #0x1                   	// #1
  4015d8:	aa1303e2 	mov	x2, x19
  4015dc:	94012dd1 	bl	44cd20 <__aarch64_cas4_acq>
  4015e0:	35001b40 	cbnz	w0, 401948 <_nl_find_msg+0x718>
  4015e4:	a9430b60 	ldp	x0, x2, [x27, #48]
  4015e8:	52800016 	mov	w22, #0x0                   	// #0
  4015ec:	d281fe14 	mov	x20, #0xff0                 	// #4080
  4015f0:	91002000 	add	x0, x0, #0x8
  4015f4:	a90983b7 	stp	x23, x0, [x29, #152]
  4015f8:	14000012 	b	401640 <_nl_find_msg+0x410>
  4015fc:	110006d6 	add	w22, w22, #0x1
  401600:	f9400b78 	ldr	x24, [x27, #16]
  401604:	53185ec2 	lsl	w2, w22, #8
  401608:	4b160042 	sub	w2, w2, w22
  40160c:	aa1803e0 	mov	x0, x24
  401610:	531c6c42 	lsl	w2, w2, #4
  401614:	93407c53 	sxtw	x19, w2
  401618:	f9001f73 	str	x19, [x27, #56]
  40161c:	aa1303e1 	mov	x1, x19
  401620:	94004574 	bl	412bf0 <__libc_realloc>
  401624:	d1002262 	sub	x2, x19, #0x8
  401628:	b4000ec0 	cbz	x0, 401800 <_nl_find_msg+0x5d0>
  40162c:	91002001 	add	x1, x0, #0x8
  401630:	91004003 	add	x3, x0, #0x10
  401634:	f9000b60 	str	x0, [x27, #16]
  401638:	a9030b61 	stp	x1, x2, [x27, #48]
  40163c:	f90053a3 	str	x3, [x29, #160]
  401640:	d1002044 	sub	x4, x2, #0x8
  401644:	9102a3a5 	add	x5, x29, #0xa8
  401648:	910283a3 	add	x3, x29, #0xa0
  40164c:	910263a1 	add	x1, x29, #0x98
  401650:	f1001c5f 	cmp	x2, #0x7
  401654:	54000169 	b.ls	401680 <_nl_find_msg+0x450>  // b.plast
  401658:	a9499fa2 	ldp	x2, x7, [x29, #152]
  40165c:	f9400720 	ldr	x0, [x25, #8]
  401660:	8b1a0042 	add	x2, x2, x26
  401664:	8b0400e4 	add	x4, x7, x4
  401668:	94006e62 	bl	41cff0 <__gconv>
  40166c:	721d781f 	tst	w0, #0xfffffffb
  401670:	540012e0 	b.eq	4018cc <_nl_find_msg+0x69c>  // b.none
  401674:	7100141f 	cmp	w0, #0x5
  401678:	54001161 	b.ne	4018a4 <_nl_find_msg+0x674>  // b.any
  40167c:	f9004fb7 	str	x23, [x29, #152]
  401680:	d281fe00 	mov	x0, #0xff0                 	// #4080
  401684:	35fffbd6 	cbnz	w22, 4015fc <_nl_find_msg+0x3cc>
  401688:	52800036 	mov	w22, #0x1                   	// #1
  40168c:	f9001f74 	str	x20, [x27, #56]
  401690:	9400437c 	bl	412480 <__libc_malloc>
  401694:	b4000be0 	cbz	x0, 401810 <_nl_find_msg+0x5e0>
  401698:	f9400b61 	ldr	x1, [x27, #16]
  40169c:	d281fd02 	mov	x2, #0xfe8                 	// #4072
  4016a0:	f9000001 	str	x1, [x0]
  4016a4:	17ffffe2 	b	40162c <_nl_find_msg+0x3fc>
  4016a8:	f94043b4 	ldr	x20, [x29, #128]
  4016ac:	aa1403e0 	mov	x0, x20
  4016b0:	940032a4 	bl	40e140 <___pthread_rwlock_unlock>
  4016b4:	aa1403e0 	mov	x0, x20
  4016b8:	9400332e 	bl	40e370 <___pthread_rwlock_wrlock>
  4016bc:	a9470ed4 	ldp	x20, x3, [x22, #112]
  4016c0:	8b030460 	add	x0, x3, x3, lsl #1
  4016c4:	d37df000 	lsl	x0, x0, #3
  4016c8:	d1006002 	sub	x2, x0, #0x18
  4016cc:	aa0003fb 	mov	x27, x0
  4016d0:	8b02029c 	add	x28, x20, x2
  4016d4:	14000008 	b	4016f4 <_nl_find_msg+0x4c4>
  4016d8:	f85e8780 	ldr	x0, [x28], #-24
  4016dc:	d1000463 	sub	x3, x3, #0x1
  4016e0:	aa1803e1 	mov	x1, x24
  4016e4:	f90047a3 	str	x3, [x29, #136]
  4016e8:	940049c6 	bl	413e00 <strcmp>
  4016ec:	f94047a3 	ldr	x3, [x29, #136]
  4016f0:	34fff020 	cbz	w0, 4014f4 <_nl_find_msg+0x2c4>
  4016f4:	aa1c03f9 	mov	x25, x28
  4016f8:	b5ffff03 	cbnz	x3, 4016d8 <_nl_find_msg+0x4a8>
  4016fc:	91006360 	add	x0, x27, #0x18
  401700:	b4000cd4 	cbz	x20, 401898 <_nl_find_msg+0x668>
  401704:	aa0003e1 	mov	x1, x0
  401708:	aa1403e0 	mov	x0, x20
  40170c:	94004539 	bl	412bf0 <__libc_realloc>
  401710:	aa0003fc 	mov	x28, x0
  401714:	b400121c 	cbz	x28, 401954 <_nl_find_msg+0x724>
  401718:	f9003adc 	str	x28, [x22, #112]
  40171c:	aa1803e0 	mov	x0, x24
  401720:	94004a98 	bl	414180 <__strdup>
  401724:	aa0003f8 	mov	x24, x0
  401728:	b4001160 	cbz	x0, 401954 <_nl_find_msg+0x724>
  40172c:	8b1b0399 	add	x25, x28, x27
  401730:	f83b6b80 	str	x0, [x28, x27]
  401734:	f94033a1 	ldr	x1, [x29, #96]
  401738:	9280001c 	mov	x28, #0xffffffffffffffff    	// #-1
  40173c:	f9403fa0 	ldr	x0, [x29, #120]
  401740:	f900073c 	str	x28, [x25, #8]
  401744:	90000322 	adrp	x2, 465000 <translit_from_idx+0x17e0>
  401748:	910283a4 	add	x4, x29, #0xa0
  40174c:	9114a042 	add	x2, x2, #0x528
  401750:	52800003 	mov	w3, #0x0                   	// #0
  401754:	97fffeb7 	bl	401230 <_nl_find_msg>
  401758:	eb1c001f 	cmp	x0, x28
  40175c:	540010a0 	b.eq	401970 <_nl_find_msg+0x740>  // b.none
  401760:	b4000460 	cbz	x0, 4017ec <_nl_find_msg+0x5bc>
  401764:	d0000281 	adrp	x1, 453000 <cpu_list+0x98>
  401768:	91024021 	add	x1, x1, #0x90
  40176c:	94004c35 	bl	414840 <strstr>
  401770:	b40003e0 	cbz	x0, 4017ec <_nl_find_msg+0x5bc>
  401774:	91002014 	add	x20, x0, #0x8
  401778:	d0000281 	adrp	x1, 453000 <cpu_list+0x98>
  40177c:	aa1403e0 	mov	x0, x20
  401780:	91028021 	add	x1, x1, #0xa0
  401784:	94004a37 	bl	414060 <strcspn>
  401788:	aa0003fb 	mov	x27, x0
  40178c:	91004000 	add	x0, x0, #0x10
  401790:	aa1403e1 	mov	x1, x20
  401794:	927cec00 	and	x0, x0, #0xfffffffffffffff0
  401798:	aa1b03e2 	mov	x2, x27
  40179c:	cb2063ff 	sub	sp, sp, x0
  4017a0:	910003e3 	mov	x3, sp
  4017a4:	aa0303e0 	mov	x0, x3
  4017a8:	97fffab6 	bl	400280 <.plt+0x10>
  4017ac:	aa0003e3 	mov	x3, x0
  4017b0:	aa0003e1 	mov	x1, x0
  4017b4:	aa1803e2 	mov	x2, x24
  4017b8:	9102a3a0 	add	x0, x29, #0xa8
  4017bc:	383b687f 	strb	wzr, [x3, x27]
  4017c0:	940090f0 	bl	425b80 <__gconv_create_spec>
  4017c4:	52800023 	mov	w3, #0x1                   	// #1
  4017c8:	91002321 	add	x1, x25, #0x8
  4017cc:	52800022 	mov	w2, #0x1                   	// #1
  4017d0:	9102a3a0 	add	x0, x29, #0xa8
  4017d4:	3902e3a3 	strb	w3, [x29, #184]
  4017d8:	94006d42 	bl	41cce0 <__gconv_open>
  4017dc:	2a0003f4 	mov	w20, w0
  4017e0:	9102a3a0 	add	x0, x29, #0xa8
  4017e4:	94009194 	bl	425e34 <__gconv_destroy_spec>
  4017e8:	35000c94 	cbnz	w20, 401978 <_nl_find_msg+0x748>
  4017ec:	f9403ec0 	ldr	x0, [x22, #120]
  4017f0:	f9000b3f 	str	xzr, [x25, #16]
  4017f4:	91000400 	add	x0, x0, #0x1
  4017f8:	f9003ec0 	str	x0, [x22, #120]
  4017fc:	17ffff3e 	b	4014f4 <_nl_find_msg+0x2c4>
  401800:	f9400301 	ldr	x1, [x24]
  401804:	aa1803e0 	mov	x0, x24
  401808:	f9000b61 	str	x1, [x27, #16]
  40180c:	9400446d 	bl	4129c0 <__free>
  401810:	a9037f7f 	stp	xzr, xzr, [x27, #48]
  401814:	9100a373 	add	x19, x27, #0x28
  401818:	aa1303e1 	mov	x1, x19
  40181c:	52800000 	mov	w0, #0x0                   	// #0
  401820:	92800017 	mov	x23, #0xffffffffffffffff    	// #-1
  401824:	94012dd3 	bl	44cf70 <__aarch64_swp4_rel>
  401828:	7100041f 	cmp	w0, #0x1
  40182c:	54ffdfad 	b.le	401420 <_nl_find_msg+0x1f0>
  401830:	aa1303e0 	mov	x0, x19
  401834:	940030d8 	bl	40db94 <__lll_lock_wake_private>
  401838:	17fffefa 	b	401420 <_nl_find_msg+0x1f0>
  40183c:	b000047b 	adrp	x27, 48e000 <static_slotinfo+0x2b0>
  401840:	9106a37b 	add	x27, x27, #0x1a8
  401844:	9100a374 	add	x20, x27, #0x28
  401848:	52800021 	mov	w1, #0x1                   	// #1
  40184c:	aa1403e2 	mov	x2, x20
  401850:	94012d34 	bl	44cd20 <__aarch64_cas4_acq>
  401854:	35000880 	cbnz	w0, 401964 <_nl_find_msg+0x734>
  401858:	f9400b20 	ldr	x0, [x25, #16]
  40185c:	b4000640 	cbz	x0, 401924 <_nl_find_msg+0x6f4>
  401860:	9100a37b 	add	x27, x27, #0x28
  401864:	52800000 	mov	w0, #0x0                   	// #0
  401868:	aa1b03e1 	mov	x1, x27
  40186c:	94012dc1 	bl	44cf70 <__aarch64_swp4_rel>
  401870:	7100041f 	cmp	w0, #0x1
  401874:	5400006c 	b.gt	401880 <_nl_find_msg+0x650>
  401878:	f9400b20 	ldr	x0, [x25, #16]
  40187c:	17ffff25 	b	401510 <_nl_find_msg+0x2e0>
  401880:	aa1b03e0 	mov	x0, x27
  401884:	940030c4 	bl	40db94 <__lll_lock_wake_private>
  401888:	f9400b20 	ldr	x0, [x25, #16]
  40188c:	17ffff21 	b	401510 <_nl_find_msg+0x2e0>
  401890:	aa0003f7 	mov	x23, x0
  401894:	17fffee3 	b	401420 <_nl_find_msg+0x1f0>
  401898:	940042fa 	bl	412480 <__libc_malloc>
  40189c:	aa0003fc 	mov	x28, x0
  4018a0:	17ffff9d 	b	401714 <_nl_find_msg+0x4e4>
  4018a4:	9100a37b 	add	x27, x27, #0x28
  4018a8:	52800000 	mov	w0, #0x0                   	// #0
  4018ac:	aa1b03e1 	mov	x1, x27
  4018b0:	d2800017 	mov	x23, #0x0                   	// #0
  4018b4:	94012daf 	bl	44cf70 <__aarch64_swp4_rel>
  4018b8:	7100041f 	cmp	w0, #0x1
  4018bc:	54ffdb2d 	b.le	401420 <_nl_find_msg+0x1f0>
  4018c0:	aa1b03e0 	mov	x0, x27
  4018c4:	940030b4 	bl	40db94 <__lll_lock_wake_private>
  4018c8:	17fffed6 	b	401420 <_nl_find_msg+0x1f0>
  4018cc:	a9430b64 	ldp	x4, x2, [x27, #48]
  4018d0:	9100a373 	add	x19, x27, #0x28
  4018d4:	f94053a3 	ldr	x3, [x29, #160]
  4018d8:	aa1303e1 	mov	x1, x19
  4018dc:	f9400b27 	ldr	x7, [x25, #16]
  4018e0:	cb040065 	sub	x5, x3, x4
  4018e4:	d10020a0 	sub	x0, x5, #0x8
  4018e8:	cb050042 	sub	x2, x2, x5
  4018ec:	f9000080 	str	x0, [x4]
  4018f0:	52800000 	mov	w0, #0x0                   	// #0
  4018f4:	f83578e4 	str	x4, [x7, x21, lsl #3]
  4018f8:	92400844 	and	x4, x2, #0x7
  4018fc:	8b040063 	add	x3, x3, x4
  401900:	927df042 	and	x2, x2, #0xfffffffffffffff8
  401904:	a9030b63 	stp	x3, x2, [x27, #48]
  401908:	d37df2b5 	lsl	x21, x21, #3
  40190c:	94012d99 	bl	44cf70 <__aarch64_swp4_rel>
  401910:	7100041f 	cmp	w0, #0x1
  401914:	5400042c 	b.gt	401998 <_nl_find_msg+0x768>
  401918:	f9400b20 	ldr	x0, [x25, #16]
  40191c:	f8756800 	ldr	x0, [x0, x21]
  401920:	17ffff00 	b	401520 <_nl_find_msg+0x2f0>
  401924:	b94042c0 	ldr	w0, [x22, #64]
  401928:	d2800101 	mov	x1, #0x8                   	// #8
  40192c:	0b000260 	add	w0, w19, w0
  401930:	94004609 	bl	413154 <__calloc>
  401934:	f9000b20 	str	x0, [x25, #16]
  401938:	b5ffe560 	cbnz	x0, 4015e4 <_nl_find_msg+0x3b4>
  40193c:	92800000 	mov	x0, #0xffffffffffffffff    	// #-1
  401940:	f9000b20 	str	x0, [x25, #16]
  401944:	17ffffc7 	b	401860 <_nl_find_msg+0x630>
  401948:	aa1303e0 	mov	x0, x19
  40194c:	94003051 	bl	40da90 <__lll_lock_wait_private>
  401950:	17ffff25 	b	4015e4 <_nl_find_msg+0x3b4>
  401954:	f94043a0 	ldr	x0, [x29, #128]
  401958:	92800017 	mov	x23, #0xffffffffffffffff    	// #-1
  40195c:	940031f9 	bl	40e140 <___pthread_rwlock_unlock>
  401960:	17fffeb0 	b	401420 <_nl_find_msg+0x1f0>
  401964:	aa1403e0 	mov	x0, x20
  401968:	9400304a 	bl	40da90 <__lll_lock_wait_private>
  40196c:	17ffffbb 	b	401858 <_nl_find_msg+0x628>
  401970:	aa0003f7 	mov	x23, x0
  401974:	17fffeab 	b	401420 <_nl_find_msg+0x1f0>
  401978:	3100069f 	cmn	w20, #0x1
  40197c:	54000140 	b.eq	4019a4 <_nl_find_msg+0x774>  // b.none
  401980:	f94043a0 	ldr	x0, [x29, #128]
  401984:	d2800017 	mov	x23, #0x0                   	// #0
  401988:	940031ee 	bl	40e140 <___pthread_rwlock_unlock>
  40198c:	aa1803e0 	mov	x0, x24
  401990:	9400440c 	bl	4129c0 <__free>
  401994:	17fffea3 	b	401420 <_nl_find_msg+0x1f0>
  401998:	aa1303e0 	mov	x0, x19
  40199c:	9400307e 	bl	40db94 <__lll_lock_wake_private>
  4019a0:	17ffffde 	b	401918 <_nl_find_msg+0x6e8>
  4019a4:	f900073c 	str	x28, [x25, #8]
  4019a8:	17ffff91 	b	4017ec <_nl_find_msg+0x5bc>
  4019ac:	d503201f 	nop

00000000004019b0 <__dcigettext>:
  4019b0:	a9ad7bfd 	stp	x29, x30, [sp, #-304]!
  4019b4:	910003fd 	mov	x29, sp
  4019b8:	a90153f3 	stp	x19, x20, [sp, #16]
  4019bc:	a9025bf5 	stp	x21, x22, [sp, #32]
  4019c0:	a90363f7 	stp	x23, x24, [sp, #48]
  4019c4:	a9046bf9 	stp	x25, x26, [sp, #64]
  4019c8:	a90573fb 	stp	x27, x28, [sp, #80]
  4019cc:	f90057a2 	str	x2, [x29, #168]
  4019d0:	f9006ba4 	str	x4, [x29, #208]
  4019d4:	b900dba3 	str	w3, [x29, #216]
  4019d8:	f90073bf 	str	xzr, [x29, #224]
  4019dc:	b4002041 	cbz	x1, 401de4 <__dcigettext+0x434>
  4019e0:	710030bf 	cmp	w5, #0xc
  4019e4:	aa0103f5 	mov	x21, x1
  4019e8:	2a0503f6 	mov	w22, w5
  4019ec:	7a4698a4 	ccmp	w5, #0x6, #0x4, ls  // ls = plast
  4019f0:	540001c1 	b.ne	401a28 <__dcigettext+0x78>  // b.any
  4019f4:	7100007f 	cmp	w3, #0x0
  4019f8:	fa411884 	ccmp	x4, #0x1, #0x4, ne  // ne = any
  4019fc:	540015c1 	b.ne	401cb4 <__dcigettext+0x304>  // b.any
  401a00:	aa1503e3 	mov	x3, x21
  401a04:	910003bf 	mov	sp, x29
  401a08:	aa0303e0 	mov	x0, x3
  401a0c:	a94153f3 	ldp	x19, x20, [sp, #16]
  401a10:	a9425bf5 	ldp	x21, x22, [sp, #32]
  401a14:	a94363f7 	ldp	x23, x24, [sp, #48]
  401a18:	a9446bf9 	ldp	x25, x26, [sp, #64]
  401a1c:	a94573fb 	ldp	x27, x28, [sp, #80]
  401a20:	a8d37bfd 	ldp	x29, x30, [sp], #304
  401a24:	d65f03c0 	ret
  401a28:	d0000441 	adrp	x1, 48b000 <__FRAME_END__+0x103d8>
  401a2c:	f947c821 	ldr	x1, [x1, #3984]
  401a30:	d53bd042 	mrs	x2, tpidr_el0
  401a34:	a90b07a2 	stp	x2, x1, [x29, #176]
  401a38:	aa0003f4 	mov	x20, x0
  401a3c:	b0000499 	adrp	x25, 492000 <__pthread_keys+0x3868>
  401a40:	91272320 	add	x0, x25, #0x9c8
  401a44:	f90063a0 	str	x0, [x29, #192]
  401a48:	b8616841 	ldr	w1, [x2, x1]
  401a4c:	b0000477 	adrp	x23, 48e000 <static_slotinfo+0x2b0>
  401a50:	b900cfa1 	str	w1, [x29, #204]
  401a54:	9400310f 	bl	40de90 <___pthread_rwlock_rdlock>
  401a58:	9106a2e0 	add	x0, x23, #0x1a8
  401a5c:	91010000 	add	x0, x0, #0x40
  401a60:	9400310c 	bl	40de90 <___pthread_rwlock_rdlock>
  401a64:	f0000441 	adrp	x1, 48c000 <.got.plt+0x18>
  401a68:	f100029f 	cmp	x20, #0x0
  401a6c:	9106a2e2 	add	x2, x23, #0x1a8
  401a70:	2a1603e0 	mov	w0, w22
  401a74:	f9402421 	ldr	x1, [x1, #72]
  401a78:	9101e053 	add	x19, x2, #0x78
  401a7c:	b900fbb6 	str	w22, [x29, #248]
  401a80:	9a940034 	csel	x20, x1, x20, eq  // eq = none
  401a84:	f9007bb4 	str	x20, [x29, #240]
  401a88:	f9008bbf 	str	xzr, [x29, #272]
  401a8c:	f90097b5 	str	x21, [x29, #296]
  401a90:	94009794 	bl	4278e0 <__current_locale_name>
  401a94:	aa0003e1 	mov	x1, x0
  401a98:	aa1303e0 	mov	x0, x19
  401a9c:	f9004ba1 	str	x1, [x29, #144]
  401aa0:	f90083a1 	str	x1, [x29, #256]
  401aa4:	940030fb 	bl	40de90 <___pthread_rwlock_rdlock>
  401aa8:	90000000 	adrp	x0, 401000 <plural_eval+0x70>
  401aac:	9106c002 	add	x2, x0, #0x1b0
  401ab0:	9106a2e0 	add	x0, x23, #0x1a8
  401ab4:	f90047a2 	str	x2, [x29, #136]
  401ab8:	91002001 	add	x1, x0, #0x8
  401abc:	9103c3a0 	add	x0, x29, #0xf0
  401ac0:	94006018 	bl	419b20 <__tfind>
  401ac4:	aa0003f8 	mov	x24, x0
  401ac8:	aa1303e0 	mov	x0, x19
  401acc:	f9004fb8 	str	x24, [x29, #152]
  401ad0:	9400319c 	bl	40e140 <___pthread_rwlock_unlock>
  401ad4:	b40000f8 	cbz	x24, 401af0 <__dcigettext+0x140>
  401ad8:	f9400300 	ldr	x0, [x24]
  401adc:	b0000461 	adrp	x1, 48e000 <static_slotinfo+0x2b0>
  401ae0:	b942a821 	ldr	w1, [x1, #680]
  401ae4:	b9401802 	ldr	w2, [x0, #24]
  401ae8:	6b01005f 	cmp	w2, w1
  401aec:	54001800 	b.eq	401dec <__dcigettext+0x43c>  // b.none
  401af0:	f940d6f3 	ldr	x19, [x23, #424]
  401af4:	b50000b3 	cbnz	x19, 401b08 <__dcigettext+0x158>
  401af8:	140000b4 	b	401dc8 <__dcigettext+0x418>
  401afc:	540016cb 	b.lt	401dd4 <__dcigettext+0x424>  // b.tstop
  401b00:	f9400273 	ldr	x19, [x19]
  401b04:	b4001633 	cbz	x19, 401dc8 <__dcigettext+0x418>
  401b08:	91006261 	add	x1, x19, #0x18
  401b0c:	aa1403e0 	mov	x0, x20
  401b10:	940048bc 	bl	413e00 <strcmp>
  401b14:	7100001f 	cmp	w0, #0x0
  401b18:	35ffff20 	cbnz	w0, 401afc <__dcigettext+0x14c>
  401b1c:	f9400677 	ldr	x23, [x19, #8]
  401b20:	394002e0 	ldrb	w0, [x23]
  401b24:	7100bc1f 	cmp	w0, #0x2f
  401b28:	54000ca1 	b.ne	401cbc <__dcigettext+0x30c>  // b.any
  401b2c:	b00002a2 	adrp	x2, 456000 <__PRETTY_FUNCTION__.0>
  401b30:	91232042 	add	x2, x2, #0x8c8
  401b34:	b00002a1 	adrp	x1, 456000 <__PRETTY_FUNCTION__.0>
  401b38:	9120e021 	add	x1, x1, #0x838
  401b3c:	2a1603e0 	mov	w0, w22
  401b40:	3876c85a 	ldrb	w26, [x2, w22, sxtw]
  401b44:	8b01035a 	add	x26, x26, x1
  401b48:	94009766 	bl	4278e0 <__current_locale_name>
  401b4c:	aa0003f9 	mov	x25, x0
  401b50:	39400000 	ldrb	w0, [x0]
  401b54:	71010c1f 	cmp	w0, #0x43
  401b58:	54000d41 	b.ne	401d00 <__dcigettext+0x350>  // b.any
  401b5c:	39400720 	ldrb	w0, [x25, #1]
  401b60:	35000d00 	cbnz	w0, 401d00 <__dcigettext+0x350>
  401b64:	aa1403e0 	mov	x0, x20
  401b68:	97fff9da 	bl	4002d0 <.plt+0x60>
  401b6c:	aa0003e1 	mov	x1, x0
  401b70:	aa1a03e0 	mov	x0, x26
  401b74:	aa0103f8 	mov	x24, x1
  401b78:	f9003fa1 	str	x1, [x29, #120]
  401b7c:	97fff9d5 	bl	4002d0 <.plt+0x60>
  401b80:	8b180000 	add	x0, x0, x24
  401b84:	91005000 	add	x0, x0, #0x14
  401b88:	9100eb02 	add	x2, x24, #0x3a
  401b8c:	927cec00 	and	x0, x0, #0xfffffffffffffff0
  401b90:	aa1a03e1 	mov	x1, x26
  401b94:	cb2063ff 	sub	sp, sp, x0
  401b98:	f90043a2 	str	x2, [x29, #128]
  401b9c:	910003fb 	mov	x27, sp
  401ba0:	d000029a 	adrp	x26, 453000 <cpu_list+0x98>
  401ba4:	aa1b03e0 	mov	x0, x27
  401ba8:	94004cd6 	bl	414f00 <__stpcpy>
  401bac:	528005e3 	mov	w3, #0x2f                  	// #47
  401bb0:	38001403 	strb	w3, [x0], #1
  401bb4:	aa1403e1 	mov	x1, x20
  401bb8:	aa1803e2 	mov	x2, x24
  401bbc:	97fff9b1 	bl	400280 <.plt+0x10>
  401bc0:	aa0003e1 	mov	x1, x0
  401bc4:	528da5c2 	mov	w2, #0x6d2e                	// #27950
  401bc8:	aa1903e0 	mov	x0, x25
  401bcc:	72a00de2 	movk	w2, #0x6f, lsl #16
  401bd0:	9103035a 	add	x26, x26, #0xc0
  401bd4:	b8386822 	str	w2, [x1, x24]
  401bd8:	97fff9be 	bl	4002d0 <.plt+0x60>
  401bdc:	91004000 	add	x0, x0, #0x10
  401be0:	927cec00 	and	x0, x0, #0xfffffffffffffff0
  401be4:	cb2063ff 	sub	sp, sp, x0
  401be8:	d0000440 	adrp	x0, 48b000 <__FRAME_END__+0x103d8>
  401bec:	910003f8 	mov	x24, sp
  401bf0:	913c4000 	add	x0, x0, #0xf10
  401bf4:	f90053a0 	str	x0, [x29, #160]
  401bf8:	39400320 	ldrb	w0, [x25]
  401bfc:	7100e81f 	cmp	w0, #0x3a
  401c00:	54000900 	b.eq	401d20 <__dcigettext+0x370>  // b.none
  401c04:	35000920 	cbnz	w0, 401d28 <__dcigettext+0x378>
  401c08:	52800860 	mov	w0, #0x43                  	// #67
  401c0c:	79000300 	strh	w0, [x24]
  401c10:	39400300 	ldrb	w0, [x24]
  401c14:	71010c1f 	cmp	w0, #0x43
  401c18:	54000061 	b.ne	401c24 <__dcigettext+0x274>  // b.any
  401c1c:	39400700 	ldrb	w0, [x24, #1]
  401c20:	340002a0 	cbz	w0, 401c74 <__dcigettext+0x2c4>
  401c24:	aa1a03e1 	mov	x1, x26
  401c28:	aa1803e0 	mov	x0, x24
  401c2c:	94004875 	bl	413e00 <strcmp>
  401c30:	34000220 	cbz	w0, 401c74 <__dcigettext+0x2c4>
  401c34:	aa1303e3 	mov	x3, x19
  401c38:	aa1b03e2 	mov	x2, x27
  401c3c:	aa1803e1 	mov	x1, x24
  401c40:	aa1703e0 	mov	x0, x23
  401c44:	94000113 	bl	402090 <_nl_find_domain>
  401c48:	aa0003fc 	mov	x28, x0
  401c4c:	b4fffd60 	cbz	x0, 401bf8 <__dcigettext+0x248>
  401c50:	52800023 	mov	w3, #0x1                   	// #1
  401c54:	9103a3a4 	add	x4, x29, #0xe8
  401c58:	aa1503e2 	mov	x2, x21
  401c5c:	aa1303e1 	mov	x1, x19
  401c60:	97fffd74 	bl	401230 <_nl_find_msg>
  401c64:	aa0003e3 	mov	x3, x0
  401c68:	b4000800 	cbz	x0, 401d68 <__dcigettext+0x3b8>
  401c6c:	b100041f 	cmn	x0, #0x1
  401c70:	54001181 	b.ne	401ea0 <__dcigettext+0x4f0>  // b.any
  401c74:	f94073a0 	ldr	x0, [x29, #224]
  401c78:	94004352 	bl	4129c0 <__free>
  401c7c:	b0000460 	adrp	x0, 48e000 <static_slotinfo+0x2b0>
  401c80:	9106a000 	add	x0, x0, #0x1a8
  401c84:	91010000 	add	x0, x0, #0x40
  401c88:	9400312e 	bl	40e140 <___pthread_rwlock_unlock>
  401c8c:	f94063a0 	ldr	x0, [x29, #192]
  401c90:	9400312c 	bl	40e140 <___pthread_rwlock_unlock>
  401c94:	a94b07a0 	ldp	x0, x1, [x29, #176]
  401c98:	b940cfa2 	ldr	w2, [x29, #204]
  401c9c:	b8216802 	str	w2, [x0, x1]
  401ca0:	b940dba0 	ldr	w0, [x29, #216]
  401ca4:	7100001f 	cmp	w0, #0x0
  401ca8:	f9406ba0 	ldr	x0, [x29, #208]
  401cac:	fa411804 	ccmp	x0, #0x1, #0x4, ne  // ne = any
  401cb0:	54ffea80 	b.eq	401a00 <__dcigettext+0x50>  // b.none
  401cb4:	f94057a3 	ldr	x3, [x29, #168]
  401cb8:	17ffff53 	b	401a04 <__dcigettext+0x54>
  401cbc:	d2800001 	mov	x1, #0x0                   	// #0
  401cc0:	d2800000 	mov	x0, #0x0                   	// #0
  401cc4:	94005b67 	bl	418a60 <__getcwd>
  401cc8:	aa0003fa 	mov	x26, x0
  401ccc:	b4fffd40 	cbz	x0, 401c74 <__dcigettext+0x2c4>
  401cd0:	aa1703e3 	mov	x3, x23
  401cd4:	aa0003e2 	mov	x2, x0
  401cd8:	d0000281 	adrp	x1, 453000 <cpu_list+0x98>
  401cdc:	9102a021 	add	x1, x1, #0xa8
  401ce0:	910383a0 	add	x0, x29, #0xe0
  401ce4:	94001113 	bl	406130 <___asprintf>
  401ce8:	2a0003f7 	mov	w23, w0
  401cec:	aa1a03e0 	mov	x0, x26
  401cf0:	94004334 	bl	4129c0 <__free>
  401cf4:	37fffc17 	tbnz	w23, #31, 401c74 <__dcigettext+0x2c4>
  401cf8:	f94073b7 	ldr	x23, [x29, #224]
  401cfc:	17ffff8c 	b	401b2c <__dcigettext+0x17c>
  401d00:	d0000280 	adrp	x0, 453000 <cpu_list+0x98>
  401d04:	9102c000 	add	x0, x0, #0xb0
  401d08:	94000dfe 	bl	405500 <getenv>
  401d0c:	b4fff2c0 	cbz	x0, 401b64 <__dcigettext+0x1b4>
  401d10:	39400001 	ldrb	w1, [x0]
  401d14:	7100003f 	cmp	w1, #0x0
  401d18:	9a800339 	csel	x25, x25, x0, eq  // eq = none
  401d1c:	17ffff92 	b	401b64 <__dcigettext+0x1b4>
  401d20:	91000739 	add	x25, x25, #0x1
  401d24:	17ffffb5 	b	401bf8 <__dcigettext+0x248>
  401d28:	aa1803e1 	mov	x1, x24
  401d2c:	d503201f 	nop
  401d30:	38001420 	strb	w0, [x1], #1
  401d34:	38401f20 	ldrb	w0, [x25, #1]!
  401d38:	7100e81f 	cmp	w0, #0x3a
  401d3c:	7a401804 	ccmp	w0, #0x0, #0x4, ne  // ne = any
  401d40:	54ffff81 	b.ne	401d30 <__dcigettext+0x380>  // b.any
  401d44:	f94053a0 	ldr	x0, [x29, #160]
  401d48:	3900003f 	strb	wzr, [x1]
  401d4c:	b9400000 	ldr	w0, [x0]
  401d50:	34fff600 	cbz	w0, 401c10 <__dcigettext+0x260>
  401d54:	aa1803e0 	mov	x0, x24
  401d58:	528005e1 	mov	w1, #0x2f                  	// #47
  401d5c:	940047f9 	bl	413d40 <strchr>
  401d60:	b5fff4c0 	cbnz	x0, 401bf8 <__dcigettext+0x248>
  401d64:	17ffffab 	b	401c10 <__dcigettext+0x260>
  401d68:	f9401380 	ldr	x0, [x28, #32]
  401d6c:	b4fff460 	cbz	x0, 401bf8 <__dcigettext+0x248>
  401d70:	91008381 	add	x1, x28, #0x20
  401d74:	d2800006 	mov	x6, #0x0                   	// #0
  401d78:	a906dfb8 	stp	x24, x23, [x29, #104]
  401d7c:	aa1503f8 	mov	x24, x21
  401d80:	aa0603f7 	mov	x23, x6
  401d84:	aa1303f5 	mov	x21, x19
  401d88:	aa0103f3 	mov	x19, x1
  401d8c:	14000004 	b	401d9c <__dcigettext+0x3ec>
  401d90:	b5000800 	cbnz	x0, 401e90 <__dcigettext+0x4e0>
  401d94:	f8777a60 	ldr	x0, [x19, x23, lsl #3]
  401d98:	b4000bc0 	cbz	x0, 401f10 <__dcigettext+0x560>
  401d9c:	aa1503e1 	mov	x1, x21
  401da0:	9103a3a4 	add	x4, x29, #0xe8
  401da4:	aa1803e2 	mov	x2, x24
  401da8:	52800023 	mov	w3, #0x1                   	// #1
  401dac:	97fffd21 	bl	401230 <_nl_find_msg>
  401db0:	2a1703e1 	mov	w1, w23
  401db4:	910006f7 	add	x23, x23, #0x1
  401db8:	b100041f 	cmn	x0, #0x1
  401dbc:	54fffea1 	b.ne	401d90 <__dcigettext+0x3e0>  // b.any
  401dc0:	aa1803f5 	mov	x21, x24
  401dc4:	17ffffac 	b	401c74 <__dcigettext+0x2c4>
  401dc8:	d0000297 	adrp	x23, 453000 <cpu_list+0x98>
  401dcc:	910322f7 	add	x23, x23, #0xc8
  401dd0:	17ffff57 	b	401b2c <__dcigettext+0x17c>
  401dd4:	d0000297 	adrp	x23, 453000 <cpu_list+0x98>
  401dd8:	d2800013 	mov	x19, #0x0                   	// #0
  401ddc:	910322f7 	add	x23, x23, #0xc8
  401de0:	17ffff53 	b	401b2c <__dcigettext+0x17c>
  401de4:	d2800003 	mov	x3, #0x0                   	// #0
  401de8:	17ffff07 	b	401a04 <__dcigettext+0x54>
  401dec:	b940dba1 	ldr	w1, [x29, #216]
  401df0:	f9401403 	ldr	x3, [x0, #40]
  401df4:	350001a1 	cbnz	w1, 401e28 <__dcigettext+0x478>
  401df8:	b0000460 	adrp	x0, 48e000 <static_slotinfo+0x2b0>
  401dfc:	9106a000 	add	x0, x0, #0x1a8
  401e00:	91010000 	add	x0, x0, #0x40
  401e04:	f9006fa3 	str	x3, [x29, #216]
  401e08:	940030ce 	bl	40e140 <___pthread_rwlock_unlock>
  401e0c:	f94063a0 	ldr	x0, [x29, #192]
  401e10:	940030cc 	bl	40e140 <___pthread_rwlock_unlock>
  401e14:	a94b07a0 	ldp	x0, x1, [x29, #176]
  401e18:	b940cfa2 	ldr	w2, [x29, #204]
  401e1c:	f9406fa3 	ldr	x3, [x29, #216]
  401e20:	b8216802 	str	w2, [x0, x1]
  401e24:	17fffef8 	b	401a04 <__dcigettext+0x54>
  401e28:	f9401002 	ldr	x2, [x0, #32]
  401e2c:	f9006fa3 	str	x3, [x29, #216]
  401e30:	f9401814 	ldr	x20, [x0, #48]
  401e34:	f9400853 	ldr	x19, [x2, #16]
  401e38:	f9406ba1 	ldr	x1, [x29, #208]
  401e3c:	f9405e60 	ldr	x0, [x19, #184]
  401e40:	97fffc54 	bl	400f90 <plural_eval>
  401e44:	f9406261 	ldr	x1, [x19, #192]
  401e48:	aa0003f3 	mov	x19, x0
  401e4c:	f9406fa3 	ldr	x3, [x29, #216]
  401e50:	eb01001f 	cmp	x0, x1
  401e54:	54fffd22 	b.cs	401df8 <__dcigettext+0x448>  // b.hs, b.nlast
  401e58:	8b140074 	add	x20, x3, x20
  401e5c:	aa0303e0 	mov	x0, x3
  401e60:	aa0303f5 	mov	x21, x3
  401e64:	d503201f 	nop
  401e68:	d1000673 	sub	x19, x19, #0x1
  401e6c:	52800001 	mov	w1, #0x0                   	// #0
  401e70:	b100067f 	cmn	x19, #0x1
  401e74:	54001020 	b.eq	402078 <__dcigettext+0x6c8>  // b.none
  401e78:	94004ce2 	bl	415200 <__rawmemchr>
  401e7c:	91000400 	add	x0, x0, #0x1
  401e80:	eb14001f 	cmp	x0, x20
  401e84:	54ffff23 	b.cc	401e68 <__dcigettext+0x4b8>  // b.lo, b.ul, b.last
  401e88:	aa1503e3 	mov	x3, x21
  401e8c:	17ffffdb 	b	401df8 <__dcigettext+0x448>
  401e90:	8b21cf81 	add	x1, x28, w1, sxtw #3
  401e94:	aa0003e3 	mov	x3, x0
  401e98:	aa1803f5 	mov	x21, x24
  401e9c:	f940103c 	ldr	x28, [x1, #32]
  401ea0:	f90057a3 	str	x3, [x29, #168]
  401ea4:	f94073a0 	ldr	x0, [x29, #224]
  401ea8:	940042c6 	bl	4129c0 <__free>
  401eac:	f9404fa0 	ldr	x0, [x29, #152]
  401eb0:	f94057a3 	ldr	x3, [x29, #168]
  401eb4:	b4000660 	cbz	x0, 401f80 <__dcigettext+0x5d0>
  401eb8:	f9404fa0 	ldr	x0, [x29, #152]
  401ebc:	b0000462 	adrp	x2, 48e000 <static_slotinfo+0x2b0>
  401ec0:	f94077a1 	ldr	x1, [x29, #232]
  401ec4:	f9400000 	ldr	x0, [x0]
  401ec8:	b942a842 	ldr	w2, [x2, #680]
  401ecc:	b9001802 	str	w2, [x0, #24]
  401ed0:	a9020c1c 	stp	x28, x3, [x0, #32]
  401ed4:	f9001801 	str	x1, [x0, #48]
  401ed8:	a94b07a0 	ldp	x0, x1, [x29, #176]
  401edc:	b940cfa2 	ldr	w2, [x29, #204]
  401ee0:	b8216802 	str	w2, [x0, x1]
  401ee4:	b940dba0 	ldr	w0, [x29, #216]
  401ee8:	350001c0 	cbnz	w0, 401f20 <__dcigettext+0x570>
  401eec:	b0000460 	adrp	x0, 48e000 <static_slotinfo+0x2b0>
  401ef0:	9106a000 	add	x0, x0, #0x1a8
  401ef4:	91010000 	add	x0, x0, #0x40
  401ef8:	f9006fa3 	str	x3, [x29, #216]
  401efc:	94003091 	bl	40e140 <___pthread_rwlock_unlock>
  401f00:	f94063a0 	ldr	x0, [x29, #192]
  401f04:	9400308f 	bl	40e140 <___pthread_rwlock_unlock>
  401f08:	f9406fa3 	ldr	x3, [x29, #216]
  401f0c:	17fffebe 	b	401a04 <__dcigettext+0x54>
  401f10:	aa1503f3 	mov	x19, x21
  401f14:	aa1803f5 	mov	x21, x24
  401f18:	a946dfb8 	ldp	x24, x23, [x29, #104]
  401f1c:	17ffff37 	b	401bf8 <__dcigettext+0x248>
  401f20:	f9400b93 	ldr	x19, [x28, #16]
  401f24:	f9006fa3 	str	x3, [x29, #216]
  401f28:	f9406ba1 	ldr	x1, [x29, #208]
  401f2c:	f9405e60 	ldr	x0, [x19, #184]
  401f30:	f94077b4 	ldr	x20, [x29, #232]
  401f34:	97fffc17 	bl	400f90 <plural_eval>
  401f38:	f9406261 	ldr	x1, [x19, #192]
  401f3c:	aa0003f3 	mov	x19, x0
  401f40:	f9406fa3 	ldr	x3, [x29, #216]
  401f44:	eb01001f 	cmp	x0, x1
  401f48:	54fffd22 	b.cs	401eec <__dcigettext+0x53c>  // b.hs, b.nlast
  401f4c:	8b140074 	add	x20, x3, x20
  401f50:	aa0303e0 	mov	x0, x3
  401f54:	aa0303f5 	mov	x21, x3
  401f58:	d1000673 	sub	x19, x19, #0x1
  401f5c:	52800001 	mov	w1, #0x0                   	// #0
  401f60:	b100067f 	cmn	x19, #0x1
  401f64:	540008e0 	b.eq	402080 <__dcigettext+0x6d0>  // b.none
  401f68:	94004ca6 	bl	415200 <__rawmemchr>
  401f6c:	91000400 	add	x0, x0, #0x1
  401f70:	eb14001f 	cmp	x0, x20
  401f74:	54ffff23 	b.cc	401f58 <__dcigettext+0x5a8>  // b.lo, b.ul, b.last
  401f78:	aa1503e3 	mov	x3, x21
  401f7c:	17ffffdc 	b	401eec <__dcigettext+0x53c>
  401f80:	aa1503e0 	mov	x0, x21
  401f84:	97fff8d3 	bl	4002d0 <.plt+0x60>
  401f88:	f9404bb8 	ldr	x24, [x29, #144]
  401f8c:	91000413 	add	x19, x0, #0x1
  401f90:	aa1803e0 	mov	x0, x24
  401f94:	97fff8cf 	bl	4002d0 <.plt+0x60>
  401f98:	f94043a1 	ldr	x1, [x29, #128]
  401f9c:	8b130000 	add	x0, x0, x19
  401fa0:	8b010000 	add	x0, x0, x1
  401fa4:	94004137 	bl	412480 <__libc_malloc>
  401fa8:	aa0003f7 	mov	x23, x0
  401fac:	f94057a3 	ldr	x3, [x29, #168]
  401fb0:	b4fff940 	cbz	x0, 401ed8 <__dcigettext+0x528>
  401fb4:	f9403fa0 	ldr	x0, [x29, #120]
  401fb8:	aa1503e1 	mov	x1, x21
  401fbc:	aa1303e2 	mov	x2, x19
  401fc0:	91000415 	add	x21, x0, #0x1
  401fc4:	9100e2e0 	add	x0, x23, #0x38
  401fc8:	97fff8ae 	bl	400280 <.plt+0x10>
  401fcc:	aa1503e2 	mov	x2, x21
  401fd0:	8b130015 	add	x21, x0, x19
  401fd4:	8b0202b3 	add	x19, x21, x2
  401fd8:	aa1403e1 	mov	x1, x20
  401fdc:	aa1503e0 	mov	x0, x21
  401fe0:	97fff8a8 	bl	400280 <.plt+0x10>
  401fe4:	aa1803e1 	mov	x1, x24
  401fe8:	aa1303e0 	mov	x0, x19
  401fec:	940047d5 	bl	413f40 <strcpy>
  401ff0:	f90002f5 	str	x21, [x23]
  401ff4:	b0000460 	adrp	x0, 48e000 <static_slotinfo+0x2b0>
  401ff8:	b0000461 	adrp	x1, 48e000 <static_slotinfo+0x2b0>
  401ffc:	9106a021 	add	x1, x1, #0x1a8
  402000:	b9000af6 	str	w22, [x23, #8]
  402004:	b942a802 	ldr	w2, [x0, #680]
  402008:	9101e034 	add	x20, x1, #0x78
  40200c:	f94057a3 	ldr	x3, [x29, #168]
  402010:	f9000af3 	str	x19, [x23, #16]
  402014:	f94077a1 	ldr	x1, [x29, #232]
  402018:	b9001ae2 	str	w2, [x23, #24]
  40201c:	a9020efc 	stp	x28, x3, [x23, #32]
  402020:	aa1403e0 	mov	x0, x20
  402024:	f9001ae1 	str	x1, [x23, #48]
  402028:	940030d2 	bl	40e370 <___pthread_rwlock_wrlock>
  40202c:	f94047a2 	ldr	x2, [x29, #136]
  402030:	90000460 	adrp	x0, 48e000 <static_slotinfo+0x2b0>
  402034:	9106a000 	add	x0, x0, #0x1a8
  402038:	91002001 	add	x1, x0, #0x8
  40203c:	aa1703e0 	mov	x0, x23
  402040:	94005e44 	bl	419950 <__tsearch>
  402044:	aa0003f3 	mov	x19, x0
  402048:	aa1403e0 	mov	x0, x20
  40204c:	9400303d 	bl	40e140 <___pthread_rwlock_unlock>
  402050:	f94057a3 	ldr	x3, [x29, #168]
  402054:	b4000093 	cbz	x19, 402064 <__dcigettext+0x6b4>
  402058:	f9400260 	ldr	x0, [x19]
  40205c:	eb17001f 	cmp	x0, x23
  402060:	54fff3c0 	b.eq	401ed8 <__dcigettext+0x528>  // b.none
  402064:	aa1703e0 	mov	x0, x23
  402068:	f90057a3 	str	x3, [x29, #168]
  40206c:	94004255 	bl	4129c0 <__free>
  402070:	f94057a3 	ldr	x3, [x29, #168]
  402074:	17ffff99 	b	401ed8 <__dcigettext+0x528>
  402078:	aa0003e3 	mov	x3, x0
  40207c:	17ffff5f 	b	401df8 <__dcigettext+0x448>
  402080:	aa0003e3 	mov	x3, x0
  402084:	17ffff9a 	b	401eec <__dcigettext+0x53c>
  402088:	d503201f 	nop
  40208c:	d503201f 	nop

0000000000402090 <_nl_find_domain>:
  402090:	d10283ff 	sub	sp, sp, #0xa0
  402094:	a9027bfd 	stp	x29, x30, [sp, #32]
  402098:	910083fd 	add	x29, sp, #0x20
  40209c:	a90353f3 	stp	x19, x20, [sp, #48]
  4020a0:	90000474 	adrp	x20, 48e000 <static_slotinfo+0x2b0>
  4020a4:	91096294 	add	x20, x20, #0x258
  4020a8:	a9045bf5 	stp	x21, x22, [sp, #64]
  4020ac:	aa0003f5 	mov	x21, x0
  4020b0:	aa0303f6 	mov	x22, x3
  4020b4:	aa1403e0 	mov	x0, x20
  4020b8:	a90563f7 	stp	x23, x24, [sp, #80]
  4020bc:	aa0103f7 	mov	x23, x1
  4020c0:	aa0203f8 	mov	x24, x2
  4020c4:	94002f73 	bl	40de90 <___pthread_rwlock_rdlock>
  4020c8:	aa1503e0 	mov	x0, x21
  4020cc:	97fff881 	bl	4002d0 <.plt+0x60>
  4020d0:	aa1703e4 	mov	x4, x23
  4020d4:	91000402 	add	x2, x0, #0x1
  4020d8:	aa1503e1 	mov	x1, x21
  4020dc:	a90063ff 	stp	xzr, x24, [sp]
  4020e0:	d2800007 	mov	x7, #0x0                   	// #0
  4020e4:	b90013ff 	str	wzr, [sp, #16]
  4020e8:	d2800006 	mov	x6, #0x0                   	// #0
  4020ec:	d2800005 	mov	x5, #0x0                   	// #0
  4020f0:	52800003 	mov	w3, #0x0                   	// #0
  4020f4:	9100e280 	add	x0, x20, #0x38
  4020f8:	94000686 	bl	403b10 <_nl_make_l10nflist>
  4020fc:	aa0003f3 	mov	x19, x0
  402100:	aa1403e0 	mov	x0, x20
  402104:	9400300f 	bl	40e140 <___pthread_rwlock_unlock>
  402108:	b4000413 	cbz	x19, 402188 <_nl_find_domain+0xf8>
  40210c:	b9400a60 	ldr	w0, [x19, #8]
  402110:	7100001f 	cmp	w0, #0x0
  402114:	5400032d 	b.le	402178 <_nl_find_domain+0xe8>
  402118:	f9400a60 	ldr	x0, [x19, #16]
  40211c:	b4000100 	cbz	x0, 40213c <_nl_find_domain+0xac>
  402120:	aa1303e0 	mov	x0, x19
  402124:	a9427bfd 	ldp	x29, x30, [sp, #32]
  402128:	a94353f3 	ldp	x19, x20, [sp, #48]
  40212c:	a9445bf5 	ldp	x21, x22, [sp, #64]
  402130:	a94563f7 	ldp	x23, x24, [sp, #80]
  402134:	910283ff 	add	sp, sp, #0xa0
  402138:	d65f03c0 	ret
  40213c:	f9401260 	ldr	x0, [x19, #32]
  402140:	b4ffff00 	cbz	x0, 402120 <_nl_find_domain+0x90>
  402144:	91008274 	add	x20, x19, #0x20
  402148:	14000006 	b	402160 <_nl_find_domain+0xd0>
  40214c:	f9400280 	ldr	x0, [x20]
  402150:	f9400800 	ldr	x0, [x0, #16]
  402154:	b5fffe60 	cbnz	x0, 402120 <_nl_find_domain+0x90>
  402158:	f8408e80 	ldr	x0, [x20, #8]!
  40215c:	b4fffe20 	cbz	x0, 402120 <_nl_find_domain+0x90>
  402160:	b9400802 	ldr	w2, [x0, #8]
  402164:	7100005f 	cmp	w2, #0x0
  402168:	54ffff2c 	b.gt	40214c <_nl_find_domain+0xbc>
  40216c:	aa1603e1 	mov	x1, x22
  402170:	9400005c 	bl	4022e0 <_nl_load_domain>
  402174:	17fffff6 	b	40214c <_nl_find_domain+0xbc>
  402178:	aa1603e1 	mov	x1, x22
  40217c:	aa1303e0 	mov	x0, x19
  402180:	94000058 	bl	4022e0 <_nl_load_domain>
  402184:	17ffffe5 	b	402118 <_nl_find_domain+0x88>
  402188:	aa1703e0 	mov	x0, x23
  40218c:	a9066bf9 	stp	x25, x26, [sp, #96]
  402190:	940005ec 	bl	403940 <_nl_expand_alias>
  402194:	aa0003fa 	mov	x26, x0
  402198:	b4000140 	cbz	x0, 4021c0 <_nl_find_domain+0x130>
  40219c:	97fff84d 	bl	4002d0 <.plt+0x60>
  4021a0:	91000419 	add	x25, x0, #0x1
  4021a4:	aa1903e0 	mov	x0, x25
  4021a8:	940040b6 	bl	412480 <__libc_malloc>
  4021ac:	aa0003f7 	mov	x23, x0
  4021b0:	b4000540 	cbz	x0, 402258 <_nl_find_domain+0x1c8>
  4021b4:	aa1903e2 	mov	x2, x25
  4021b8:	aa1a03e1 	mov	x1, x26
  4021bc:	97fff831 	bl	400280 <.plt+0x10>
  4021c0:	910263e5 	add	x5, sp, #0x98
  4021c4:	910243e4 	add	x4, sp, #0x90
  4021c8:	910223e3 	add	x3, sp, #0x88
  4021cc:	910203e2 	add	x2, sp, #0x80
  4021d0:	9101e3e1 	add	x1, sp, #0x78
  4021d4:	aa1703e0 	mov	x0, x23
  4021d8:	940007d2 	bl	404120 <_nl_explode_name>
  4021dc:	2a0003f9 	mov	w25, w0
  4021e0:	3100041f 	cmn	w0, #0x1
  4021e4:	540003a0 	b.eq	402258 <_nl_find_domain+0x1c8>  // b.none
  4021e8:	aa1403e0 	mov	x0, x20
  4021ec:	94003061 	bl	40e370 <___pthread_rwlock_wrlock>
  4021f0:	aa1503e0 	mov	x0, x21
  4021f4:	97fff837 	bl	4002d0 <.plt+0x60>
  4021f8:	a947a3e4 	ldp	x4, x8, [sp, #120]
  4021fc:	91000402 	add	x2, x0, #0x1
  402200:	a9489be5 	ldp	x5, x6, [sp, #136]
  402204:	52800020 	mov	w0, #0x1                   	// #1
  402208:	f9404fe7 	ldr	x7, [sp, #152]
  40220c:	aa1503e1 	mov	x1, x21
  402210:	2a1903e3 	mov	w3, w25
  402214:	a90063e8 	stp	x8, x24, [sp]
  402218:	b90013e0 	str	w0, [sp, #16]
  40221c:	9100e280 	add	x0, x20, #0x38
  402220:	9400063c 	bl	403b10 <_nl_make_l10nflist>
  402224:	aa0003f3 	mov	x19, x0
  402228:	aa1403e0 	mov	x0, x20
  40222c:	94002fc5 	bl	40e140 <___pthread_rwlock_unlock>
  402230:	b4000133 	cbz	x19, 402254 <_nl_find_domain+0x1c4>
  402234:	b9400a60 	ldr	w0, [x19, #8]
  402238:	7100001f 	cmp	w0, #0x0
  40223c:	5400044d 	b.le	4022c4 <_nl_find_domain+0x234>
  402240:	f9400a60 	ldr	x0, [x19, #16]
  402244:	b4000220 	cbz	x0, 402288 <_nl_find_domain+0x1f8>
  402248:	b400007a 	cbz	x26, 402254 <_nl_find_domain+0x1c4>
  40224c:	aa1703e0 	mov	x0, x23
  402250:	940041dc 	bl	4129c0 <__free>
  402254:	37000139 	tbnz	w25, #0, 402278 <_nl_find_domain+0x1e8>
  402258:	aa1303e0 	mov	x0, x19
  40225c:	a9427bfd 	ldp	x29, x30, [sp, #32]
  402260:	a94353f3 	ldp	x19, x20, [sp, #48]
  402264:	a9445bf5 	ldp	x21, x22, [sp, #64]
  402268:	a94563f7 	ldp	x23, x24, [sp, #80]
  40226c:	a9466bf9 	ldp	x25, x26, [sp, #96]
  402270:	910283ff 	add	sp, sp, #0xa0
  402274:	d65f03c0 	ret
  402278:	f9404fe0 	ldr	x0, [sp, #152]
  40227c:	940041d1 	bl	4129c0 <__free>
  402280:	a9466bf9 	ldp	x25, x26, [sp, #96]
  402284:	17ffffa7 	b	402120 <_nl_find_domain+0x90>
  402288:	f9401260 	ldr	x0, [x19, #32]
  40228c:	b4fffde0 	cbz	x0, 402248 <_nl_find_domain+0x1b8>
  402290:	91008274 	add	x20, x19, #0x20
  402294:	14000006 	b	4022ac <_nl_find_domain+0x21c>
  402298:	f9400280 	ldr	x0, [x20]
  40229c:	f9400800 	ldr	x0, [x0, #16]
  4022a0:	b5fffd40 	cbnz	x0, 402248 <_nl_find_domain+0x1b8>
  4022a4:	f8408e80 	ldr	x0, [x20, #8]!
  4022a8:	b4fffd00 	cbz	x0, 402248 <_nl_find_domain+0x1b8>
  4022ac:	b9400801 	ldr	w1, [x0, #8]
  4022b0:	7100003f 	cmp	w1, #0x0
  4022b4:	54ffff2c 	b.gt	402298 <_nl_find_domain+0x208>
  4022b8:	aa1603e1 	mov	x1, x22
  4022bc:	94000009 	bl	4022e0 <_nl_load_domain>
  4022c0:	17fffff6 	b	402298 <_nl_find_domain+0x208>
  4022c4:	aa1603e1 	mov	x1, x22
  4022c8:	aa1303e0 	mov	x0, x19
  4022cc:	94000005 	bl	4022e0 <_nl_load_domain>
  4022d0:	17ffffdc 	b	402240 <_nl_find_domain+0x1b0>
  4022d4:	d503201f 	nop
  4022d8:	d503201f 	nop
  4022dc:	d503201f 	nop

00000000004022e0 <_nl_load_domain>:
  4022e0:	a9a87bfd 	stp	x29, x30, [sp, #-384]!
  4022e4:	90000466 	adrp	x6, 48e000 <static_slotinfo+0x2b0>
  4022e8:	910003fd 	mov	x29, sp
  4022ec:	a9025bf5 	stp	x21, x22, [sp, #32]
  4022f0:	910a60d6 	add	x22, x6, #0x298
  4022f4:	d53bd055 	mrs	x21, tpidr_el0
  4022f8:	a90153f3 	stp	x19, x20, [sp, #16]
  4022fc:	d11e42b4 	sub	x20, x21, #0x790
  402300:	aa0003f3 	mov	x19, x0
  402304:	f94006c2 	ldr	x2, [x22, #8]
  402308:	a9046bf9 	stp	x25, x26, [sp, #64]
  40230c:	aa0103f9 	mov	x25, x1
  402310:	eb14005f 	cmp	x2, x20
  402314:	540000e0 	b.eq	402330 <_nl_load_domain+0x50>  // b.none
  402318:	aa1603e2 	mov	x2, x22
  40231c:	52800021 	mov	w1, #0x1                   	// #1
  402320:	52800000 	mov	w0, #0x0                   	// #0
  402324:	94012a7f 	bl	44cd20 <__aarch64_cas4_acq>
  402328:	35002020 	cbnz	w0, 40272c <_nl_load_domain+0x44c>
  40232c:	f90006d4 	str	x20, [x22, #8]
  402330:	b94006c1 	ldr	w1, [x22, #4]
  402334:	b9400a60 	ldr	w0, [x19, #8]
  402338:	11000422 	add	w2, w1, #0x1
  40233c:	b90006c2 	str	w2, [x22, #4]
  402340:	35001d60 	cbnz	w0, 4026ec <_nl_load_domain+0x40c>
  402344:	f9400260 	ldr	x0, [x19]
  402348:	12800002 	mov	w2, #0xffffffff            	// #-1
  40234c:	b9000a62 	str	w2, [x19, #8]
  402350:	f9000a7f 	str	xzr, [x19, #16]
  402354:	b4001c80 	cbz	x0, 4026e4 <_nl_load_domain+0x404>
  402358:	52800001 	mov	w1, #0x0                   	// #0
  40235c:	94005bbd 	bl	419250 <__open64_nocancel>
  402360:	2a0003f4 	mov	w20, w0
  402364:	3100041f 	cmn	w0, #0x1
  402368:	54002540 	b.eq	402810 <_nl_load_domain+0x530>  // b.none
  40236c:	910403e1 	add	x1, sp, #0x100
  402370:	a90573fb 	stp	x27, x28, [sp, #80]
  402374:	940058d7 	bl	4186d0 <__fstat>
  402378:	2a0003fb 	mov	w27, w0
  40237c:	35001aa0 	cbnz	w0, 4026d0 <_nl_load_domain+0x3f0>
  402380:	f9409bfc 	ldr	x28, [sp, #304]
  402384:	f100bf9f 	cmp	x28, #0x2f
  402388:	54001a49 	b.ls	4026d0 <_nl_load_domain+0x3f0>  // b.plast
  40238c:	2a1403e4 	mov	w4, w20
  402390:	aa1c03e1 	mov	x1, x28
  402394:	d2800005 	mov	x5, #0x0                   	// #0
  402398:	52800043 	mov	w3, #0x2                   	// #2
  40239c:	52800022 	mov	w2, #0x1                   	// #1
  4023a0:	d2800000 	mov	x0, #0x0                   	// #0
  4023a4:	94005c4b 	bl	4194d0 <__mmap64>
  4023a8:	aa0003fa 	mov	x26, x0
  4023ac:	b100041f 	cmn	x0, #0x1
  4023b0:	54002d00 	b.eq	402950 <_nl_load_domain+0x670>  // b.none
  4023b4:	2a1403e0 	mov	w0, w20
  4023b8:	94005b46 	bl	4190d0 <__close_nocancel>
  4023bc:	b9400355 	ldr	w21, [x26]
  4023c0:	52825bc1 	mov	w1, #0x12de                	// #4830
  4023c4:	72b2a081 	movk	w1, #0x9504, lsl #16
  4023c8:	528092a0 	mov	w0, #0x495                 	// #1173
  4023cc:	6b0102bf 	cmp	w21, w1
  4023d0:	72bbc240 	movk	w0, #0xde12, lsl #16
  4023d4:	1a9f07f4 	cset	w20, ne  // ne = any
  4023d8:	7100029f 	cmp	w20, #0x0
  4023dc:	7a4012a4 	ccmp	w21, w0, #0x4, ne  // ne = any
  4023e0:	54002401 	b.ne	402860 <_nl_load_domain+0x580>  // b.any
  4023e4:	5280003b 	mov	w27, #0x1                   	// #1
  4023e8:	a90363f7 	stp	x23, x24, [sp, #48]
  4023ec:	d2801900 	mov	x0, #0xc8                  	// #200
  4023f0:	94004024 	bl	412480 <__libc_malloc>
  4023f4:	aa0003f8 	mov	x24, x0
  4023f8:	b4001e80 	cbz	x0, 4027c8 <_nl_load_domain+0x4e8>
  4023fc:	b9400740 	ldr	w0, [x26, #4]
  402400:	52825bc1 	mov	w1, #0x12de                	// #4830
  402404:	f900031a 	str	x26, [x24]
  402408:	72b2a081 	movk	w1, #0x9504, lsl #16
  40240c:	b9000b1b 	str	w27, [x24, #8]
  402410:	f9000a78 	str	x24, [x19, #16]
  402414:	f9000b1c 	str	x28, [x24, #16]
  402418:	b9001b14 	str	w20, [x24, #24]
  40241c:	f900131f 	str	xzr, [x24, #32]
  402420:	6b0102bf 	cmp	w21, w1
  402424:	540018a0 	b.eq	402738 <_nl_load_domain+0x458>  // b.none
  402428:	5ac00800 	rev	w0, w0
  40242c:	2a0003e8 	mov	w8, w0
  402430:	13107c01 	asr	w1, w0, #16
  402434:	7100043f 	cmp	w1, #0x1
  402438:	54001d28 	b.hi	4027dc <_nl_load_domain+0x4fc>  // b.pmore
  40243c:	29410b44 	ldp	w4, w2, [x26, #8]
  402440:	29422741 	ldp	w1, w9, [x26, #16]
  402444:	5ac00842 	rev	w2, w2
  402448:	8b020342 	add	x2, x26, x2
  40244c:	5ac00884 	rev	w4, w4
  402450:	5ac00821 	rev	w1, w1
  402454:	5ac00923 	rev	w3, w9
  402458:	8b010341 	add	x1, x26, x1
  40245c:	b9002b04 	str	w4, [x24, #40]
  402460:	a9030702 	stp	x2, x1, [x24, #48]
  402464:	b9005b03 	str	w3, [x24, #88]
  402468:	b90063e3 	str	w3, [sp, #96]
  40246c:	7100087f 	cmp	w3, #0x2
  402470:	54001809 	b.ls	402770 <_nl_load_domain+0x490>  // b.plast
  402474:	b9401b41 	ldr	w1, [x26, #24]
  402478:	b9006b14 	str	w20, [x24, #104]
  40247c:	5ac00821 	rev	w1, w1
  402480:	8b010341 	add	x1, x26, x1
  402484:	f9003301 	str	x1, [x24, #96]
  402488:	f9003fe1 	str	x1, [sp, #120]
  40248c:	72003c1f 	tst	w0, #0xffff
  402490:	54001780 	b.eq	402780 <_nl_load_domain+0x4a0>  // b.none
  402494:	b9402740 	ldr	w0, [x26, #36]
  402498:	5ac00801 	rev	w1, w0
  40249c:	b9006be1 	str	w1, [sp, #104]
  4024a0:	34001700 	cbz	w0, 402780 <_nl_load_domain+0x4a0>
  4024a4:	2943d340 	ldp	w0, w20, [x26, #28]
  4024a8:	5ac00a94 	rev	w20, w20
  4024ac:	5ac00800 	rev	w0, w0
  4024b0:	b90073e0 	str	w0, [sp, #112]
  4024b4:	b94073e2 	ldr	w2, [sp, #112]
  4024b8:	d2800101 	mov	x1, #0x8                   	// #8
  4024bc:	8b140354 	add	x20, x26, x20
  4024c0:	f90043e2 	str	x2, [sp, #128]
  4024c4:	aa0203e0 	mov	x0, x2
  4024c8:	94004323 	bl	413154 <__calloc>
  4024cc:	aa0003f7 	mov	x23, x0
  4024d0:	b4001860 	cbz	x0, 4027dc <_nl_load_domain+0x4fc>
  4024d4:	b94073e1 	ldr	w1, [sp, #112]
  4024d8:	91001289 	add	x9, x20, #0x4
  4024dc:	f94043e2 	ldr	x2, [sp, #128]
  4024e0:	d37df040 	lsl	x0, x2, #3
  4024e4:	d2800002 	mov	x2, #0x0                   	// #0
  4024e8:	34000661 	cbz	w1, 4025b4 <_nl_load_domain+0x2d4>
  4024ec:	b0000284 	adrp	x4, 453000 <cpu_list+0x98>
  4024f0:	90000341 	adrp	x1, 46a000 <__PRETTY_FUNCTION__.0+0xac8>
  4024f4:	9104409e 	add	x30, x4, #0x110
  4024f8:	b0000284 	adrp	x4, 453000 <cpu_list+0x98>
  4024fc:	91394028 	add	x8, x1, #0xe50
  402500:	9103c087 	add	x7, x4, #0xf0
  402504:	b0000281 	adrp	x1, 453000 <cpu_list+0x98>
  402508:	b000028b 	adrp	x11, 453000 <cpu_list+0x98>
  40250c:	b0000291 	adrp	x17, 453000 <cpu_list+0x98>
  402510:	b0000290 	adrp	x16, 453000 <cpu_list+0x98>
  402514:	b000028f 	adrp	x15, 453000 <cpu_list+0x98>
  402518:	b000028e 	adrp	x14, 453000 <cpu_list+0x98>
  40251c:	b000028d 	adrp	x13, 453000 <cpu_list+0x98>
  402520:	b0000284 	adrp	x4, 453000 <cpu_list+0x98>
  402524:	52825bca 	mov	w10, #0x12de                	// #4830
  402528:	9104e16b 	add	x11, x11, #0x138
  40252c:	9104c231 	add	x17, x17, #0x130
  402530:	9104a210 	add	x16, x16, #0x128
  402534:	910481ef 	add	x15, x15, #0x120
  402538:	910461ce 	add	x14, x14, #0x118
  40253c:	910501ad 	add	x13, x13, #0x140
  402540:	91040085 	add	x5, x4, #0x100
  402544:	9103e026 	add	x6, x1, #0xf8
  402548:	72b2a08a 	movk	w10, #0x9504, lsl #16
  40254c:	f0000301 	adrp	x1, 465000 <translit_from_idx+0x17e0>
  402550:	91128021 	add	x1, x1, #0x4a0
  402554:	f90043e1 	str	x1, [sp, #128]
  402558:	b8626921 	ldr	w1, [x9, x2]
  40255c:	b8626a84 	ldr	w4, [x20, x2]
  402560:	6b0a02bf 	cmp	w21, w10
  402564:	540018c0 	b.eq	40287c <_nl_load_domain+0x59c>  // b.none
  402568:	5ac00821 	rev	w1, w1
  40256c:	5ac00884 	rev	w4, w4
  402570:	8b010341 	add	x1, x26, x1
  402574:	34002524 	cbz	w4, 402a18 <_nl_load_domain+0x738>
  402578:	51000484 	sub	w4, w4, #0x1
  40257c:	38644824 	ldrb	w4, [x1, w4, uxtw]
  402580:	350024c4 	cbnz	w4, 402a18 <_nl_load_domain+0x738>
  402584:	39400024 	ldrb	w4, [x1]
  402588:	7101409f 	cmp	w4, #0x50
  40258c:	540017c0 	b.eq	402884 <_nl_load_domain+0x5a4>  // b.none
  402590:	7101249f 	cmp	w4, #0x49
  402594:	540024a1 	b.ne	402a28 <_nl_load_domain+0x748>  // b.any
  402598:	39400421 	ldrb	w1, [x1, #1]
  40259c:	7100003f 	cmp	w1, #0x0
  4025a0:	9a9f0164 	csel	x4, x11, xzr, eq  // eq = none
  4025a4:	f8226ae4 	str	x4, [x23, x2]
  4025a8:	91002042 	add	x2, x2, #0x8
  4025ac:	eb02001f 	cmp	x0, x2
  4025b0:	54fffd41 	b.ne	402558 <_nl_load_domain+0x278>  // b.any
  4025b4:	52825bc0 	mov	w0, #0x12de                	// #4830
  4025b8:	29450742 	ldp	w2, w1, [x26, #40]
  4025bc:	72b2a080 	movk	w0, #0x9504, lsl #16
  4025c0:	6b0002bf 	cmp	w21, w0
  4025c4:	54002720 	b.eq	402aa8 <_nl_load_domain+0x7c8>  // b.none
  4025c8:	5ac00842 	rev	w2, w2
  4025cc:	5ac00820 	rev	w0, w1
  4025d0:	8b020341 	add	x1, x26, x2
  4025d4:	f9004be1 	str	x1, [sp, #144]
  4025d8:	f94033e1 	ldr	x1, [sp, #96]
  4025dc:	8b000340 	add	x0, x26, x0
  4025e0:	a90a63fc 	stp	x28, x24, [sp, #160]
  4025e4:	aa0003fc 	mov	x28, x0
  4025e8:	d37e7c21 	ubfiz	x1, x1, #2, #32
  4025ec:	f90047e1 	str	x1, [sp, #136]
  4025f0:	a90b03f9 	stp	x25, x0, [sp, #176]
  4025f4:	f90063e1 	str	x1, [sp, #192]
  4025f8:	d2800001 	mov	x1, #0x0                   	// #0
  4025fc:	aa0103f9 	mov	x25, x1
  402600:	b90083ff 	str	wzr, [sp, #128]
  402604:	b9009bfb 	str	w27, [sp, #152]
  402608:	b94073fb 	ldr	w27, [sp, #112]
  40260c:	f9003bf3 	str	x19, [sp, #112]
  402610:	d2800014 	mov	x20, #0x0                   	// #0
  402614:	52825bc0 	mov	w0, #0x12de                	// #4830
  402618:	72b2a080 	movk	w0, #0x9504, lsl #16
  40261c:	6b0002bf 	cmp	w21, w0
  402620:	54001e40 	b.eq	4029e8 <_nl_load_domain+0x708>  // b.none
  402624:	b4002394 	cbz	x20, 402a94 <_nl_load_domain+0x7b4>
  402628:	b8797b82 	ldr	w2, [x28, x25, lsl #2]
  40262c:	5ac00842 	rev	w2, w2
  402630:	8b020342 	add	x2, x26, x2
  402634:	b9400840 	ldr	w0, [x2, #8]
  402638:	3100041f 	cmn	w0, #0x1
  40263c:	1a9f07e0 	cset	w0, ne  // ne = any
  402640:	d2800018 	mov	x24, #0x0                   	// #0
  402644:	35001f60 	cbnz	w0, 402a30 <_nl_load_domain+0x750>
  402648:	9103c3e0 	add	x0, sp, #0xf0
  40264c:	f8347818 	str	x24, [x0, x20, lsl #3]
  402650:	b4001db4 	cbz	x20, 402a04 <_nl_load_domain+0x724>
  402654:	b94083e1 	ldr	w1, [sp, #128]
  402658:	f9407be0 	ldr	x0, [sp, #240]
  40265c:	11000421 	add	w1, w1, #0x1
  402660:	b90083e1 	str	w1, [sp, #128]
  402664:	f9407fe1 	ldr	x1, [sp, #248]
  402668:	8b010000 	add	x0, x0, x1
  40266c:	f94047e1 	ldr	x1, [sp, #136]
  402670:	8b000020 	add	x0, x1, x0
  402674:	f90047e0 	str	x0, [sp, #136]
  402678:	b9406be0 	ldr	w0, [sp, #104]
  40267c:	91000739 	add	x25, x25, #0x1
  402680:	6b19001f 	cmp	w0, w25
  402684:	54fffc68 	b.hi	402610 <_nl_load_domain+0x330>  // b.pmore
  402688:	b94083e0 	ldr	w0, [sp, #128]
  40268c:	b9409bfb 	ldr	w27, [sp, #152]
  402690:	f9403bf3 	ldr	x19, [sp, #112]
  402694:	a94a63fc 	ldp	x28, x24, [sp, #160]
  402698:	f9405bf9 	ldr	x25, [sp, #176]
  40269c:	35003280 	cbnz	w0, 402cec <_nl_load_domain+0xa0c>
  4026a0:	b900431f 	str	wzr, [x24, #64]
  4026a4:	a904ff1f 	stp	xzr, xzr, [x24, #72]
  4026a8:	aa1703e0 	mov	x0, x23
  4026ac:	940040c5 	bl	4129c0 <__free>
  4026b0:	14000036 	b	402788 <_nl_load_domain+0x4a8>
  4026b4:	b100041f 	cmn	x0, #0x1
  4026b8:	540000a1 	b.ne	4026cc <_nl_load_domain+0x3ec>  // b.any
  4026bc:	f94033e0 	ldr	x0, [sp, #96]
  4026c0:	b8606aa0 	ldr	w0, [x21, x0]
  4026c4:	7100101f 	cmp	w0, #0x4
  4026c8:	54001580 	b.eq	402978 <_nl_load_domain+0x698>  // b.none
  4026cc:	a94363f7 	ldp	x23, x24, [sp, #48]
  4026d0:	2a1403e0 	mov	w0, w20
  4026d4:	94005a7f 	bl	4190d0 <__close_nocancel>
  4026d8:	a94573fb 	ldp	x27, x28, [sp, #80]
  4026dc:	b94006c1 	ldr	w1, [x22, #4]
  4026e0:	51000421 	sub	w1, w1, #0x1
  4026e4:	52800020 	mov	w0, #0x1                   	// #1
  4026e8:	b9000a60 	str	w0, [x19, #8]
  4026ec:	b90006c1 	str	w1, [x22, #4]
  4026f0:	340000c1 	cbz	w1, 402708 <_nl_load_domain+0x428>
  4026f4:	a94153f3 	ldp	x19, x20, [sp, #16]
  4026f8:	a9425bf5 	ldp	x21, x22, [sp, #32]
  4026fc:	a9446bf9 	ldp	x25, x26, [sp, #64]
  402700:	a8d87bfd 	ldp	x29, x30, [sp], #384
  402704:	d65f03c0 	ret
  402708:	aa1603e1 	mov	x1, x22
  40270c:	52800000 	mov	w0, #0x0                   	// #0
  402710:	f90006df 	str	xzr, [x22, #8]
  402714:	94012a17 	bl	44cf70 <__aarch64_swp4_rel>
  402718:	7100041f 	cmp	w0, #0x1
  40271c:	54fffecd 	b.le	4026f4 <_nl_load_domain+0x414>
  402720:	aa1603e0 	mov	x0, x22
  402724:	94002d1c 	bl	40db94 <__lll_lock_wake_private>
  402728:	17fffff3 	b	4026f4 <_nl_load_domain+0x414>
  40272c:	aa1603e0 	mov	x0, x22
  402730:	94002cd8 	bl	40da90 <__lll_lock_wait_private>
  402734:	17fffefe 	b	40232c <_nl_load_domain+0x4c>
  402738:	13107c01 	asr	w1, w0, #16
  40273c:	2a0003e8 	mov	w8, w0
  402740:	7100043f 	cmp	w1, #0x1
  402744:	540004c8 	b.hi	4027dc <_nl_load_domain+0x4fc>  // b.pmore
  402748:	29420f41 	ldp	w1, w3, [x26, #16]
  40274c:	b90063e3 	str	w3, [sp, #96]
  402750:	29410b44 	ldp	w4, w2, [x26, #8]
  402754:	8b010341 	add	x1, x26, x1
  402758:	b9002b04 	str	w4, [x24, #40]
  40275c:	8b020342 	add	x2, x26, x2
  402760:	a9030702 	stp	x2, x1, [x24, #48]
  402764:	b9005b03 	str	w3, [x24, #88]
  402768:	7100087f 	cmp	w3, #0x2
  40276c:	54000608 	b.hi	40282c <_nl_load_domain+0x54c>  // b.pmore
  402770:	f900331f 	str	xzr, [x24, #96]
  402774:	b9006b14 	str	w20, [x24, #104]
  402778:	72003d1f 	tst	w8, #0xffff
  40277c:	54000301 	b.ne	4027dc <_nl_load_domain+0x4fc>  // b.any
  402780:	b900431f 	str	wzr, [x24, #64]
  402784:	a904ff1f 	stp	xzr, xzr, [x24, #72]
  402788:	d2800001 	mov	x1, #0x0                   	// #0
  40278c:	a9077f1f 	stp	xzr, xzr, [x24, #112]
  402790:	91020300 	add	x0, x24, #0x80
  402794:	94002dab 	bl	40de40 <___pthread_rwlock_init>
  402798:	f0000302 	adrp	x2, 465000 <translit_from_idx+0x17e0>
  40279c:	aa1903e1 	mov	x1, x25
  4027a0:	9103c3e4 	add	x4, sp, #0xf0
  4027a4:	9114a042 	add	x2, x2, #0x528
  4027a8:	aa1303e0 	mov	x0, x19
  4027ac:	52800003 	mov	w3, #0x0                   	// #0
  4027b0:	97fffaa0 	bl	401230 <_nl_find_msg>
  4027b4:	b100041f 	cmn	x0, #0x1
  4027b8:	54001740 	b.eq	402aa0 <_nl_load_domain+0x7c0>  // b.none
  4027bc:	91030302 	add	x2, x24, #0xc0
  4027c0:	9102e301 	add	x1, x24, #0xb8
  4027c4:	9400090f 	bl	404c00 <__gettext_extract_plural>
  4027c8:	b94006c1 	ldr	w1, [x22, #4]
  4027cc:	a94363f7 	ldp	x23, x24, [sp, #48]
  4027d0:	51000421 	sub	w1, w1, #0x1
  4027d4:	a94573fb 	ldp	x27, x28, [sp, #80]
  4027d8:	17ffffc3 	b	4026e4 <_nl_load_domain+0x404>
  4027dc:	d2800000 	mov	x0, #0x0                   	// #0
  4027e0:	94004078 	bl	4129c0 <__free>
  4027e4:	350001db 	cbnz	w27, 40281c <_nl_load_domain+0x53c>
  4027e8:	aa1a03e0 	mov	x0, x26
  4027ec:	94004075 	bl	4129c0 <__free>
  4027f0:	aa1803e0 	mov	x0, x24
  4027f4:	94004073 	bl	4129c0 <__free>
  4027f8:	b94006c1 	ldr	w1, [x22, #4]
  4027fc:	a94363f7 	ldp	x23, x24, [sp, #48]
  402800:	51000421 	sub	w1, w1, #0x1
  402804:	a94573fb 	ldp	x27, x28, [sp, #80]
  402808:	f9000a7f 	str	xzr, [x19, #16]
  40280c:	17ffffb6 	b	4026e4 <_nl_load_domain+0x404>
  402810:	b94006c1 	ldr	w1, [x22, #4]
  402814:	51000421 	sub	w1, w1, #0x1
  402818:	17ffffb3 	b	4026e4 <_nl_load_domain+0x404>
  40281c:	aa1c03e1 	mov	x1, x28
  402820:	aa1a03e0 	mov	x0, x26
  402824:	94005b47 	bl	419540 <__munmap>
  402828:	17fffff2 	b	4027f0 <_nl_load_domain+0x510>
  40282c:	b9401b41 	ldr	w1, [x26, #24]
  402830:	b9006b14 	str	w20, [x24, #104]
  402834:	8b010341 	add	x1, x26, x1
  402838:	f9003301 	str	x1, [x24, #96]
  40283c:	f9003fe1 	str	x1, [sp, #120]
  402840:	72003c1f 	tst	w0, #0xffff
  402844:	54fff9e0 	b.eq	402780 <_nl_load_domain+0x4a0>  // b.none
  402848:	b9402740 	ldr	w0, [x26, #36]
  40284c:	b9006be0 	str	w0, [sp, #104]
  402850:	34fff980 	cbz	w0, 402780 <_nl_load_domain+0x4a0>
  402854:	2943d340 	ldp	w0, w20, [x26, #28]
  402858:	b90073e0 	str	w0, [sp, #112]
  40285c:	17ffff16 	b	4024b4 <_nl_load_domain+0x1d4>
  402860:	aa1c03e1 	mov	x1, x28
  402864:	aa1a03e0 	mov	x0, x26
  402868:	94005b36 	bl	419540 <__munmap>
  40286c:	b94006c1 	ldr	w1, [x22, #4]
  402870:	a94573fb 	ldp	x27, x28, [sp, #80]
  402874:	51000421 	sub	w1, w1, #0x1
  402878:	17ffff9b 	b	4026e4 <_nl_load_domain+0x404>
  40287c:	8b214341 	add	x1, x26, w1, uxtw
  402880:	17ffff3d 	b	402574 <_nl_load_domain+0x294>
  402884:	3940042c 	ldrb	w12, [x1, #1]
  402888:	d2800004 	mov	x4, #0x0                   	// #0
  40288c:	7101499f 	cmp	w12, #0x52
  402890:	54ffe8a1 	b.ne	4025a4 <_nl_load_domain+0x2c4>  // b.any
  402894:	3940082c 	ldrb	w12, [x1, #2]
  402898:	7101259f 	cmp	w12, #0x49
  40289c:	54ffe841 	b.ne	4025a4 <_nl_load_domain+0x2c4>  // b.any
  4028a0:	39400c2c 	ldrb	w12, [x1, #3]
  4028a4:	7101919f 	cmp	w12, #0x64
  4028a8:	1a9f17f2 	cset	w18, eq  // eq = none
  4028ac:	7101a59f 	cmp	w12, #0x69
  4028b0:	2a1203e3 	mov	w3, w18
  4028b4:	1a9f17f2 	cset	w18, eq  // eq = none
  4028b8:	2a120072 	orr	w18, w3, w18
  4028bc:	b9008bf2 	str	w18, [sp, #136]
  4028c0:	35000132 	cbnz	w18, 4028e4 <_nl_load_domain+0x604>
  4028c4:	51016192 	sub	w18, w12, #0x58
  4028c8:	12001e52 	and	w18, w18, #0xff
  4028cc:	7100825f 	cmp	w18, #0x20
  4028d0:	54ffe6a8 	b.hi	4025a4 <_nl_load_domain+0x2c4>  // b.pmore
  4028d4:	b20003e3 	mov	x3, #0x100000001           	// #4294967297
  4028d8:	f2a41003 	movk	x3, #0x2080, lsl #16
  4028dc:	9ad22472 	lsr	x18, x3, x18
  4028e0:	3607e632 	tbz	w18, #0, 4025a4 <_nl_load_domain+0x2c4>
  4028e4:	39401024 	ldrb	w4, [x1, #4]
  4028e8:	7100e09f 	cmp	w4, #0x38
  4028ec:	540019e0 	b.eq	402c28 <_nl_load_domain+0x948>  // b.none
  4028f0:	7100c49f 	cmp	w4, #0x31
  4028f4:	54001be0 	b.eq	402c70 <_nl_load_domain+0x990>  // b.none
  4028f8:	7100cc9f 	cmp	w4, #0x33
  4028fc:	54000de1 	b.ne	402ab8 <_nl_load_domain+0x7d8>  // b.any
  402900:	39401432 	ldrb	w18, [x1, #5]
  402904:	d2800004 	mov	x4, #0x0                   	// #0
  402908:	7100ca5f 	cmp	w18, #0x32
  40290c:	54ffe4c1 	b.ne	4025a4 <_nl_load_domain+0x2c4>  // b.any
  402910:	39401821 	ldrb	w1, [x1, #6]
  402914:	35ffe481 	cbnz	w1, 4025a4 <_nl_load_domain+0x2c4>
  402918:	7101919f 	cmp	w12, #0x64
  40291c:	54004180 	b.eq	40314c <_nl_load_domain+0xe6c>  // b.none
  402920:	b9408be1 	ldr	w1, [sp, #136]
  402924:	35004201 	cbnz	w1, 403164 <_nl_load_domain+0xe84>
  402928:	7101bd9f 	cmp	w12, #0x6f
  40292c:	540045c0 	b.eq	4031e4 <_nl_load_domain+0xf04>  // b.none
  402930:	7101d59f 	cmp	w12, #0x75
  402934:	540043c0 	b.eq	4031ac <_nl_load_domain+0xecc>  // b.none
  402938:	f94043e1 	ldr	x1, [sp, #128]
  40293c:	7101e19f 	cmp	w12, #0x78
  402940:	b0000284 	adrp	x4, 453000 <cpu_list+0x98>
  402944:	91042084 	add	x4, x4, #0x108
  402948:	9a841024 	csel	x4, x1, x4, ne  // ne = any
  40294c:	17ffff16 	b	4025a4 <_nl_load_domain+0x2c4>
  402950:	aa1c03e0 	mov	x0, x28
  402954:	94003ecb 	bl	412480 <__libc_malloc>
  402958:	aa0003fa 	mov	x26, x0
  40295c:	b4ffeba0 	cbz	x0, 4026d0 <_nl_load_domain+0x3f0>
  402960:	a90363f7 	stp	x23, x24, [sp, #48]
  402964:	aa0003f8 	mov	x24, x0
  402968:	aa1c03f7 	mov	x23, x28
  40296c:	b0000440 	adrp	x0, 48b000 <__FRAME_END__+0x103d8>
  402970:	f947c800 	ldr	x0, [x0, #3984]
  402974:	f90033e0 	str	x0, [sp, #96]
  402978:	aa1703e2 	mov	x2, x23
  40297c:	aa1803e1 	mov	x1, x24
  402980:	2a1403e0 	mov	w0, w20
  402984:	94005a5b 	bl	4192f0 <__read_nocancel>
  402988:	f100001f 	cmp	x0, #0x0
  40298c:	54ffe94d 	b.le	4026b4 <_nl_load_domain+0x3d4>
  402990:	8b000318 	add	x24, x24, x0
  402994:	eb0002f7 	subs	x23, x23, x0
  402998:	54ffff01 	b.ne	402978 <_nl_load_domain+0x698>  // b.any
  40299c:	2a1403e0 	mov	w0, w20
  4029a0:	940059cc 	bl	4190d0 <__close_nocancel>
  4029a4:	b9400355 	ldr	w21, [x26]
  4029a8:	52825bc1 	mov	w1, #0x12de                	// #4830
  4029ac:	72b2a081 	movk	w1, #0x9504, lsl #16
  4029b0:	528092a0 	mov	w0, #0x495                 	// #1173
  4029b4:	6b0102bf 	cmp	w21, w1
  4029b8:	72bbc240 	movk	w0, #0xde12, lsl #16
  4029bc:	1a9f07f4 	cset	w20, ne  // ne = any
  4029c0:	7100029f 	cmp	w20, #0x0
  4029c4:	7a4012a4 	ccmp	w21, w0, #0x4, ne  // ne = any
  4029c8:	54ffd120 	b.eq	4023ec <_nl_load_domain+0x10c>  // b.none
  4029cc:	aa1a03e0 	mov	x0, x26
  4029d0:	94003ffc 	bl	4129c0 <__free>
  4029d4:	b94006c1 	ldr	w1, [x22, #4]
  4029d8:	a94363f7 	ldp	x23, x24, [sp, #48]
  4029dc:	51000421 	sub	w1, w1, #0x1
  4029e0:	a94573fb 	ldp	x27, x28, [sp, #80]
  4029e4:	17ffff40 	b	4026e4 <_nl_load_domain+0x404>
  4029e8:	b4000514 	cbz	x20, 402a88 <_nl_load_domain+0x7a8>
  4029ec:	b8797b82 	ldr	w2, [x28, x25, lsl #2]
  4029f0:	8b020342 	add	x2, x26, x2
  4029f4:	b9400840 	ldr	w0, [x2, #8]
  4029f8:	3100041f 	cmn	w0, #0x1
  4029fc:	1a9f07e0 	cset	w0, ne  // ne = any
  402a00:	17ffff10 	b	402640 <_nl_load_domain+0x360>
  402a04:	d2800034 	mov	x20, #0x1                   	// #1
  402a08:	17ffff03 	b	402614 <_nl_load_domain+0x334>
  402a0c:	a94a63fc 	ldp	x28, x24, [sp, #160]
  402a10:	b9409bfb 	ldr	w27, [sp, #152]
  402a14:	f9403bf3 	ldr	x19, [sp, #112]
  402a18:	aa1703e0 	mov	x0, x23
  402a1c:	94003fe9 	bl	4129c0 <__free>
  402a20:	d2800000 	mov	x0, #0x0                   	// #0
  402a24:	17ffff6f 	b	4027e0 <_nl_load_domain+0x500>
  402a28:	d2800004 	mov	x4, #0x0                   	// #0
  402a2c:	17fffede 	b	4025a4 <_nl_load_domain+0x2c4>
  402a30:	91001053 	add	x19, x2, #0x4
  402a34:	d2800001 	mov	x1, #0x0                   	// #0
  402a38:	1400000d 	b	402a6c <_nl_load_domain+0x78c>
  402a3c:	5ac00863 	rev	w3, w3
  402a40:	5ac00800 	rev	w0, w0
  402a44:	8b010078 	add	x24, x3, x1
  402a48:	3100041f 	cmn	w0, #0x1
  402a4c:	54ffdfe0 	b.eq	402648 <_nl_load_domain+0x368>  // b.none
  402a50:	6b1b001f 	cmp	w0, w27
  402a54:	54fffdc2 	b.cs	402a0c <_nl_load_domain+0x72c>  // b.hs, b.nlast
  402a58:	f8605ae0 	ldr	x0, [x23, w0, uxtw #3]
  402a5c:	b4ffe0e0 	cbz	x0, 402678 <_nl_load_domain+0x398>
  402a60:	97fff61c 	bl	4002d0 <.plt+0x60>
  402a64:	91002273 	add	x19, x19, #0x8
  402a68:	8b180001 	add	x1, x0, x24
  402a6c:	52825bc2 	mov	w2, #0x12de                	// #4830
  402a70:	29400263 	ldp	w3, w0, [x19]
  402a74:	72b2a082 	movk	w2, #0x9504, lsl #16
  402a78:	6b0202bf 	cmp	w21, w2
  402a7c:	54fffe01 	b.ne	402a3c <_nl_load_domain+0x75c>  // b.any
  402a80:	8b234038 	add	x24, x1, w3, uxtw
  402a84:	17fffff1 	b	402a48 <_nl_load_domain+0x768>
  402a88:	f9404be0 	ldr	x0, [sp, #144]
  402a8c:	b8797802 	ldr	w2, [x0, x25, lsl #2]
  402a90:	17ffffd8 	b	4029f0 <_nl_load_domain+0x710>
  402a94:	f9404be0 	ldr	x0, [sp, #144]
  402a98:	b8797802 	ldr	w2, [x0, x25, lsl #2]
  402a9c:	17fffee4 	b	40262c <_nl_load_domain+0x34c>
  402aa0:	f9401300 	ldr	x0, [x24, #32]
  402aa4:	17ffff4f 	b	4027e0 <_nl_load_domain+0x500>
  402aa8:	8b224340 	add	x0, x26, w2, uxtw
  402aac:	f9004be0 	str	x0, [sp, #144]
  402ab0:	2a0103e0 	mov	w0, w1
  402ab4:	17fffec9 	b	4025d8 <_nl_load_domain+0x2f8>
  402ab8:	7100d89f 	cmp	w4, #0x36
  402abc:	54000241 	b.ne	402b04 <_nl_load_domain+0x824>  // b.any
  402ac0:	39401432 	ldrb	w18, [x1, #5]
  402ac4:	d2800004 	mov	x4, #0x0                   	// #0
  402ac8:	7100d25f 	cmp	w18, #0x34
  402acc:	54ffd6c1 	b.ne	4025a4 <_nl_load_domain+0x2c4>  // b.any
  402ad0:	39401821 	ldrb	w1, [x1, #6]
  402ad4:	35ffd681 	cbnz	w1, 4025a4 <_nl_load_domain+0x2c4>
  402ad8:	7101919f 	cmp	w12, #0x64
  402adc:	54003480 	b.eq	40316c <_nl_load_domain+0xe8c>  // b.none
  402ae0:	b9408be1 	ldr	w1, [sp, #136]
  402ae4:	35003481 	cbnz	w1, 403174 <_nl_load_domain+0xe94>
  402ae8:	7101bd9f 	cmp	w12, #0x6f
  402aec:	54003740 	b.eq	4031d4 <_nl_load_domain+0xef4>  // b.none
  402af0:	7101d59f 	cmp	w12, #0x75
  402af4:	540036c0 	b.eq	4031cc <_nl_load_domain+0xeec>  // b.none
  402af8:	7101e19f 	cmp	w12, #0x78
  402afc:	9a9e01a4 	csel	x4, x13, x30, eq  // eq = none
  402b00:	17fffea9 	b	4025a4 <_nl_load_domain+0x2c4>
  402b04:	7101309f 	cmp	w4, #0x4c
  402b08:	54000341 	b.ne	402b70 <_nl_load_domain+0x890>  // b.any
  402b0c:	39401432 	ldrb	w18, [x1, #5]
  402b10:	d2800004 	mov	x4, #0x0                   	// #0
  402b14:	7101165f 	cmp	w18, #0x45
  402b18:	54ffd461 	b.ne	4025a4 <_nl_load_domain+0x2c4>  // b.any
  402b1c:	39401832 	ldrb	w18, [x1, #6]
  402b20:	7101065f 	cmp	w18, #0x41
  402b24:	54ffd401 	b.ne	4025a4 <_nl_load_domain+0x2c4>  // b.any
  402b28:	39401c32 	ldrb	w18, [x1, #7]
  402b2c:	71014e5f 	cmp	w18, #0x53
  402b30:	54ffd3a1 	b.ne	4025a4 <_nl_load_domain+0x2c4>  // b.any
  402b34:	39402032 	ldrb	w18, [x1, #8]
  402b38:	7101525f 	cmp	w18, #0x54
  402b3c:	54ffd341 	b.ne	4025a4 <_nl_load_domain+0x2c4>  // b.any
  402b40:	39402424 	ldrb	w4, [x1, #9]
  402b44:	7100e09f 	cmp	w4, #0x38
  402b48:	540049a0 	b.eq	40347c <_nl_load_domain+0x119c>  // b.none
  402b4c:	7100c49f 	cmp	w4, #0x31
  402b50:	540048c0 	b.eq	403468 <_nl_load_domain+0x1188>  // b.none
  402b54:	7100cc9f 	cmp	w4, #0x33
  402b58:	540036e1 	b.ne	403234 <_nl_load_domain+0xf54>  // b.any
  402b5c:	39402824 	ldrb	w4, [x1, #10]
  402b60:	7100c89f 	cmp	w4, #0x32
  402b64:	54003480 	b.eq	4031f4 <_nl_load_domain+0xf14>  // b.none
  402b68:	d2800004 	mov	x4, #0x0                   	// #0
  402b6c:	17fffe8e 	b	4025a4 <_nl_load_domain+0x2c4>
  402b70:	7101189f 	cmp	w4, #0x46
  402b74:	540002e1 	b.ne	402bd0 <_nl_load_domain+0x8f0>  // b.any
  402b78:	39401432 	ldrb	w18, [x1, #5]
  402b7c:	d2800004 	mov	x4, #0x0                   	// #0
  402b80:	7101065f 	cmp	w18, #0x41
  402b84:	54ffd101 	b.ne	4025a4 <_nl_load_domain+0x2c4>  // b.any
  402b88:	39401832 	ldrb	w18, [x1, #6]
  402b8c:	71014e5f 	cmp	w18, #0x53
  402b90:	54ffd0a1 	b.ne	4025a4 <_nl_load_domain+0x2c4>  // b.any
  402b94:	39401c32 	ldrb	w18, [x1, #7]
  402b98:	7101525f 	cmp	w18, #0x54
  402b9c:	54ffd041 	b.ne	4025a4 <_nl_load_domain+0x2c4>  // b.any
  402ba0:	39402024 	ldrb	w4, [x1, #8]
  402ba4:	7100e09f 	cmp	w4, #0x38
  402ba8:	54003cc0 	b.eq	403340 <_nl_load_domain+0x1060>  // b.none
  402bac:	7100c49f 	cmp	w4, #0x31
  402bb0:	54003be0 	b.eq	40332c <_nl_load_domain+0x104c>  // b.none
  402bb4:	7100cc9f 	cmp	w4, #0x33
  402bb8:	54003661 	b.ne	403284 <_nl_load_domain+0xfa4>  // b.any
  402bbc:	39402424 	ldrb	w4, [x1, #9]
  402bc0:	7100c89f 	cmp	w4, #0x32
  402bc4:	54003460 	b.eq	403250 <_nl_load_domain+0xf70>  // b.none
  402bc8:	d2800004 	mov	x4, #0x0                   	// #0
  402bcc:	17fffe76 	b	4025a4 <_nl_load_domain+0x2c4>
  402bd0:	7101349f 	cmp	w4, #0x4d
  402bd4:	54000761 	b.ne	402cc0 <_nl_load_domain+0x9e0>  // b.any
  402bd8:	39401432 	ldrb	w18, [x1, #5]
  402bdc:	d2800004 	mov	x4, #0x0                   	// #0
  402be0:	7101065f 	cmp	w18, #0x41
  402be4:	54ffce01 	b.ne	4025a4 <_nl_load_domain+0x2c4>  // b.any
  402be8:	39401832 	ldrb	w18, [x1, #6]
  402bec:	7101625f 	cmp	w18, #0x58
  402bf0:	54ffcda1 	b.ne	4025a4 <_nl_load_domain+0x2c4>  // b.any
  402bf4:	39401c21 	ldrb	w1, [x1, #7]
  402bf8:	350029e1 	cbnz	w1, 403134 <_nl_load_domain+0xe54>
  402bfc:	7101919f 	cmp	w12, #0x64
  402c00:	54002ca0 	b.eq	403194 <_nl_load_domain+0xeb4>  // b.none
  402c04:	b9408be1 	ldr	w1, [sp, #136]
  402c08:	35002c21 	cbnz	w1, 40318c <_nl_load_domain+0xeac>
  402c0c:	7101bd9f 	cmp	w12, #0x6f
  402c10:	54002ba0 	b.eq	403184 <_nl_load_domain+0xea4>  // b.none
  402c14:	7101d59f 	cmp	w12, #0x75
  402c18:	54002b20 	b.eq	40317c <_nl_load_domain+0xe9c>  // b.none
  402c1c:	7101e19f 	cmp	w12, #0x78
  402c20:	9a8d13c4 	csel	x4, x30, x13, ne  // ne = any
  402c24:	17fffe60 	b	4025a4 <_nl_load_domain+0x2c4>
  402c28:	39401421 	ldrb	w1, [x1, #5]
  402c2c:	d2800004 	mov	x4, #0x0                   	// #0
  402c30:	35ffcba1 	cbnz	w1, 4025a4 <_nl_load_domain+0x2c4>
  402c34:	aa0803e4 	mov	x4, x8
  402c38:	7101919f 	cmp	w12, #0x64
  402c3c:	54ffcb40 	b.eq	4025a4 <_nl_load_domain+0x2c4>  // b.none
  402c40:	b9408be1 	ldr	w1, [sp, #136]
  402c44:	350025a1 	cbnz	w1, 4030f8 <_nl_load_domain+0xe18>
  402c48:	7101bd9f 	cmp	w12, #0x6f
  402c4c:	54002520 	b.eq	4030f0 <_nl_load_domain+0xe10>  // b.none
  402c50:	7101d59f 	cmp	w12, #0x75
  402c54:	54002800 	b.eq	403154 <_nl_load_domain+0xe74>  // b.none
  402c58:	f94043e1 	ldr	x1, [sp, #128]
  402c5c:	7101e19f 	cmp	w12, #0x78
  402c60:	b0000284 	adrp	x4, 453000 <cpu_list+0x98>
  402c64:	91042084 	add	x4, x4, #0x108
  402c68:	9a841024 	csel	x4, x1, x4, ne  // ne = any
  402c6c:	17fffe4e 	b	4025a4 <_nl_load_domain+0x2c4>
  402c70:	39401432 	ldrb	w18, [x1, #5]
  402c74:	d2800004 	mov	x4, #0x0                   	// #0
  402c78:	7100da5f 	cmp	w18, #0x36
  402c7c:	54ffc941 	b.ne	4025a4 <_nl_load_domain+0x2c4>  // b.any
  402c80:	39401821 	ldrb	w1, [x1, #6]
  402c84:	35ffc901 	cbnz	w1, 4025a4 <_nl_load_domain+0x2c4>
  402c88:	7101919f 	cmp	w12, #0x64
  402c8c:	540025c0 	b.eq	403144 <_nl_load_domain+0xe64>  // b.none
  402c90:	b9408be1 	ldr	w1, [sp, #136]
  402c94:	35002541 	cbnz	w1, 40313c <_nl_load_domain+0xe5c>
  402c98:	7101bd9f 	cmp	w12, #0x6f
  402c9c:	54002840 	b.eq	4031a4 <_nl_load_domain+0xec4>  // b.none
  402ca0:	7101d59f 	cmp	w12, #0x75
  402ca4:	540027c0 	b.eq	40319c <_nl_load_domain+0xebc>  // b.none
  402ca8:	f94043e1 	ldr	x1, [sp, #128]
  402cac:	7101e19f 	cmp	w12, #0x78
  402cb0:	b0000284 	adrp	x4, 453000 <cpu_list+0x98>
  402cb4:	91042084 	add	x4, x4, #0x108
  402cb8:	9a841024 	csel	x4, x1, x4, ne  // ne = any
  402cbc:	17fffe3a 	b	4025a4 <_nl_load_domain+0x2c4>
  402cc0:	7101409f 	cmp	w4, #0x50
  402cc4:	54002941 	b.ne	4031ec <_nl_load_domain+0xf0c>  // b.any
  402cc8:	39401432 	ldrb	w18, [x1, #5]
  402ccc:	d2800004 	mov	x4, #0x0                   	// #0
  402cd0:	7101525f 	cmp	w18, #0x54
  402cd4:	54ffc681 	b.ne	4025a4 <_nl_load_domain+0x2c4>  // b.any
  402cd8:	39401824 	ldrb	w4, [x1, #6]
  402cdc:	7101489f 	cmp	w4, #0x52
  402ce0:	54002100 	b.eq	403100 <_nl_load_domain+0xe20>  // b.none
  402ce4:	d2800004 	mov	x4, #0x0                   	// #0
  402ce8:	17fffe2f 	b	4025a4 <_nl_load_domain+0x2c4>
  402cec:	f94047e1 	ldr	x1, [sp, #136]
  402cf0:	aa0003f4 	mov	x20, x0
  402cf4:	531f7800 	lsl	w0, w0, #1
  402cf8:	8b205020 	add	x0, x1, w0, uxtw #4
  402cfc:	94003de1 	bl	412480 <__libc_malloc>
  402d00:	f90047e0 	str	x0, [sp, #136]
  402d04:	b4ffd6c0 	cbz	x0, 4027dc <_nl_load_domain+0x4fc>
  402d08:	d37c7e84 	ubfiz	x4, x20, #4, #32
  402d0c:	f9001300 	str	x0, [x24, #32]
  402d10:	8b040001 	add	x1, x0, x4
  402d14:	f90053e1 	str	x1, [sp, #160]
  402d18:	8b040404 	add	x4, x0, x4, lsl #1
  402d1c:	a90dcfe4 	stp	x4, x19, [sp, #216]
  402d20:	aa1703e0 	mov	x0, x23
  402d24:	a94b87f3 	ldp	x19, x1, [sp, #184]
  402d28:	aa1a03f7 	mov	x23, x26
  402d2c:	d280000a 	mov	x10, #0x0                   	// #0
  402d30:	2a1503fa 	mov	w26, w21
  402d34:	52825bc9 	mov	w9, #0x12de                	// #4830
  402d38:	aa0003f5 	mov	x21, x0
  402d3c:	f9005ff9 	str	x25, [sp, #184]
  402d40:	72b2a089 	movk	w9, #0x9504, lsl #16
  402d44:	a90ce3fc 	stp	x28, x24, [sp, #200]
  402d48:	aa0a03fc 	mov	x28, x10
  402d4c:	8b010083 	add	x3, x4, x1
  402d50:	aa0303f9 	mov	x25, x3
  402d54:	b90073ff 	str	wzr, [sp, #112]
  402d58:	b900c3fb 	str	w27, [sp, #192]
  402d5c:	52800007 	mov	w7, #0x0                   	// #0
  402d60:	6b09035f 	cmp	w26, w9
  402d64:	54000500 	b.eq	402e04 <_nl_load_domain+0xb24>  // b.none
  402d68:	340011a7 	cbz	w7, 402f9c <_nl_load_domain+0xcbc>
  402d6c:	b87c7a61 	ldr	w1, [x19, x28, lsl #2]
  402d70:	5ac00821 	rev	w1, w1
  402d74:	8b0102e1 	add	x1, x23, x1
  402d78:	b9400820 	ldr	w0, [x1, #8]
  402d7c:	3100041f 	cmn	w0, #0x1
  402d80:	540004e1 	b.ne	402e1c <_nl_load_domain+0xb3c>  // b.any
  402d84:	340011a7 	cbz	w7, 402fb8 <_nl_load_domain+0xcd8>
  402d88:	f9403be0 	ldr	x0, [sp, #112]
  402d8c:	5280001b 	mov	w27, #0x0                   	// #0
  402d90:	f9004ff3 	str	x19, [sp, #152]
  402d94:	d37c7c14 	ubfiz	x20, x0, #4, #32
  402d98:	f94053e0 	ldr	x0, [sp, #160]
  402d9c:	8b140000 	add	x0, x0, x20
  402da0:	f9005be0 	str	x0, [sp, #176]
  402da4:	f94047e0 	ldr	x0, [sp, #136]
  402da8:	8b140000 	add	x0, x0, x20
  402dac:	f90057e0 	str	x0, [sp, #168]
  402db0:	6b09035f 	cmp	w26, w9
  402db4:	54001160 	b.eq	402fe0 <_nl_load_domain+0xd00>  // b.none
  402db8:	340017db 	cbz	w27, 4030b0 <_nl_load_domain+0xdd0>
  402dbc:	f9404fe0 	ldr	x0, [sp, #152]
  402dc0:	f9405bf3 	ldr	x19, [sp, #176]
  402dc4:	b87c7800 	ldr	w0, [x0, x28, lsl #2]
  402dc8:	5ac00801 	rev	w1, w0
  402dcc:	5ac00814 	rev	w20, w0
  402dd0:	8b1402f4 	add	x20, x23, x20
  402dd4:	b8614af8 	ldr	w24, [x23, w1, uxtw]
  402dd8:	5ac00b18 	rev	w24, w24
  402ddc:	8b1802f8 	add	x24, x23, x24
  402de0:	b9400a80 	ldr	w0, [x20, #8]
  402de4:	3100041f 	cmn	w0, #0x1
  402de8:	54001161 	b.ne	403014 <_nl_load_domain+0xd34>  // b.any
  402dec:	b9400680 	ldr	w0, [x20, #4]
  402df0:	5ac00800 	rev	w0, w0
  402df4:	a9006260 	stp	x0, x24, [x19]
  402df8:	350002bb 	cbnz	w27, 402e4c <_nl_load_domain+0xb6c>
  402dfc:	5280003b 	mov	w27, #0x1                   	// #1
  402e00:	17ffffec 	b	402db0 <_nl_load_domain+0xad0>
  402e04:	34000de7 	cbz	w7, 402fc0 <_nl_load_domain+0xce0>
  402e08:	b87c7a61 	ldr	w1, [x19, x28, lsl #2]
  402e0c:	8b0102e1 	add	x1, x23, x1
  402e10:	b9400820 	ldr	w0, [x1, #8]
  402e14:	3100041f 	cmn	w0, #0x1
  402e18:	54fffb60 	b.eq	402d84 <_nl_load_domain+0xaa4>  // b.none
  402e1c:	91001021 	add	x1, x1, #0x4
  402e20:	14000005 	b	402e34 <_nl_load_domain+0xb54>
  402e24:	f8605aa0 	ldr	x0, [x21, w0, uxtw #3]
  402e28:	b40001a0 	cbz	x0, 402e5c <_nl_load_domain+0xb7c>
  402e2c:	b9400c20 	ldr	w0, [x1, #12]
  402e30:	91002021 	add	x1, x1, #0x8
  402e34:	6b09035f 	cmp	w26, w9
  402e38:	5ac00802 	rev	w2, w0
  402e3c:	1a801040 	csel	w0, w2, w0, ne  // ne = any
  402e40:	3100041f 	cmn	w0, #0x1
  402e44:	54ffff01 	b.ne	402e24 <_nl_load_domain+0xb44>  // b.any
  402e48:	17ffffcf 	b	402d84 <_nl_load_domain+0xaa4>
  402e4c:	b94073e0 	ldr	w0, [sp, #112]
  402e50:	f9404ff3 	ldr	x19, [sp, #152]
  402e54:	11000400 	add	w0, w0, #0x1
  402e58:	b90073e0 	str	w0, [sp, #112]
  402e5c:	b9406be0 	ldr	w0, [sp, #104]
  402e60:	9100079c 	add	x28, x28, #0x1
  402e64:	6b1c001f 	cmp	w0, w28
  402e68:	54fff7a8 	b.hi	402d5c <_nl_load_domain+0xa7c>  // b.pmore
  402e6c:	b94073e2 	ldr	w2, [sp, #112]
  402e70:	aa1503e0 	mov	x0, x21
  402e74:	b94083e1 	ldr	w1, [sp, #128]
  402e78:	2a1a03f5 	mov	w21, w26
  402e7c:	b940c3fb 	ldr	w27, [sp, #192]
  402e80:	aa1703fa 	mov	x26, x23
  402e84:	aa0003f7 	mov	x23, x0
  402e88:	d2800000 	mov	x0, #0x0                   	// #0
  402e8c:	f9405ff9 	ldr	x25, [sp, #184]
  402e90:	a94ce3fc 	ldp	x28, x24, [sp, #200]
  402e94:	a94dcfe4 	ldp	x4, x19, [sp, #216]
  402e98:	6b02003f 	cmp	w1, w2
  402e9c:	540036c1 	b.ne	403574 <_nl_load_domain+0x1294>  // b.any
  402ea0:	b94063e5 	ldr	w5, [sp, #96]
  402ea4:	52825bc9 	mov	w9, #0x12de                	// #4830
  402ea8:	f9403fe3 	ldr	x3, [sp, #120]
  402eac:	72b2a089 	movk	w9, #0x9504, lsl #16
  402eb0:	b8607861 	ldr	w1, [x3, x0, lsl #2]
  402eb4:	6b0902bf 	cmp	w21, w9
  402eb8:	5ac00822 	rev	w2, w1
  402ebc:	1a811041 	csel	w1, w2, w1, ne  // ne = any
  402ec0:	b8207881 	str	w1, [x4, x0, lsl #2]
  402ec4:	91000400 	add	x0, x0, #0x1
  402ec8:	6b0000bf 	cmp	w5, w0
  402ecc:	54ffff28 	b.hi	402eb0 <_nl_load_domain+0xbd0>  // b.pmore
  402ed0:	f94047e0 	ldr	x0, [sp, #136]
  402ed4:	52800014 	mov	w20, #0x0                   	// #0
  402ed8:	a9064ff7 	stp	x23, x19, [sp, #96]
  402edc:	91002015 	add	x21, x0, #0x8
  402ee0:	b94083f3 	ldr	w19, [sp, #128]
  402ee4:	2a1403e0 	mov	w0, w20
  402ee8:	aa1503f7 	mov	x23, x21
  402eec:	aa1803f4 	mov	x20, x24
  402ef0:	aa0403f5 	mov	x21, x4
  402ef4:	2a0003f8 	mov	w24, w0
  402ef8:	f94002e0 	ldr	x0, [x23]
  402efc:	94000781 	bl	404d00 <__hash_string>
  402f00:	b9405a84 	ldr	w4, [x20, #88]
  402f04:	51000882 	sub	w2, w4, #0x2
  402f08:	1ac40801 	udiv	w1, w0, w4
  402f0c:	1ac20803 	udiv	w3, w0, w2
  402f10:	1b048021 	msub	w1, w1, w4, w0
  402f14:	1b028063 	msub	w3, w3, w2, w0
  402f18:	8b214aa2 	add	x2, x21, w1, uxtw #2
  402f1c:	b8615aa0 	ldr	w0, [x21, w1, uxtw #2]
  402f20:	11000463 	add	w3, w3, #0x1
  402f24:	4b030085 	sub	w5, w4, w3
  402f28:	4b040064 	sub	w4, w3, w4
  402f2c:	34000120 	cbz	w0, 402f50 <_nl_load_domain+0xc70>
  402f30:	0b040022 	add	w2, w1, w4
  402f34:	6b05003f 	cmp	w1, w5
  402f38:	0b030021 	add	w1, w1, w3
  402f3c:	1a823020 	csel	w0, w1, w2, cc  // cc = lo, ul, last
  402f40:	1a823021 	csel	w1, w1, w2, cc  // cc = lo, ul, last
  402f44:	8b000aa2 	add	x2, x21, x0, lsl #2
  402f48:	b8607aa0 	ldr	w0, [x21, x0, lsl #2]
  402f4c:	35ffff20 	cbnz	w0, 402f30 <_nl_load_domain+0xc50>
  402f50:	b9402a80 	ldr	w0, [x20, #40]
  402f54:	910042f7 	add	x23, x23, #0x10
  402f58:	11000400 	add	w0, w0, #0x1
  402f5c:	0b180000 	add	w0, w0, w24
  402f60:	11000718 	add	w24, w24, #0x1
  402f64:	b9000040 	str	w0, [x2]
  402f68:	6b18027f 	cmp	w19, w24
  402f6c:	54fffc61 	b.ne	402ef8 <_nl_load_domain+0xc18>  // b.any
  402f70:	b94083e0 	ldr	w0, [sp, #128]
  402f74:	aa1403f8 	mov	x24, x20
  402f78:	b9004280 	str	w0, [x20, #64]
  402f7c:	f94047e0 	ldr	x0, [sp, #136]
  402f80:	f9002680 	str	x0, [x20, #72]
  402f84:	f94053e0 	ldr	x0, [sp, #160]
  402f88:	f9002a80 	str	x0, [x20, #80]
  402f8c:	f9003295 	str	x21, [x20, #96]
  402f90:	b9006a9f 	str	wzr, [x20, #104]
  402f94:	a9464ff7 	ldp	x23, x19, [sp, #96]
  402f98:	17fffdc4 	b	4026a8 <_nl_load_domain+0x3c8>
  402f9c:	f9404be0 	ldr	x0, [sp, #144]
  402fa0:	b87c7801 	ldr	w1, [x0, x28, lsl #2]
  402fa4:	5ac00821 	rev	w1, w1
  402fa8:	8b0102e1 	add	x1, x23, x1
  402fac:	b9400820 	ldr	w0, [x1, #8]
  402fb0:	3100041f 	cmn	w0, #0x1
  402fb4:	54fff341 	b.ne	402e1c <_nl_load_domain+0xb3c>  // b.any
  402fb8:	52800027 	mov	w7, #0x1                   	// #1
  402fbc:	17ffff69 	b	402d60 <_nl_load_domain+0xa80>
  402fc0:	f9404be0 	ldr	x0, [sp, #144]
  402fc4:	b87c7801 	ldr	w1, [x0, x28, lsl #2]
  402fc8:	8b0102e1 	add	x1, x23, x1
  402fcc:	b9400820 	ldr	w0, [x1, #8]
  402fd0:	3100041f 	cmn	w0, #0x1
  402fd4:	54fff241 	b.ne	402e1c <_nl_load_domain+0xb3c>  // b.any
  402fd8:	52800027 	mov	w7, #0x1                   	// #1
  402fdc:	17ffff61 	b	402d60 <_nl_load_domain+0xa80>
  402fe0:	340007bb 	cbz	w27, 4030d4 <_nl_load_domain+0xdf4>
  402fe4:	f9404fe0 	ldr	x0, [sp, #152]
  402fe8:	f9405bf3 	ldr	x19, [sp, #176]
  402fec:	b87c7800 	ldr	w0, [x0, x28, lsl #2]
  402ff0:	8b0002f4 	add	x20, x23, x0
  402ff4:	b8606af8 	ldr	w24, [x23, x0]
  402ff8:	8b1802f8 	add	x24, x23, x24
  402ffc:	b9400a80 	ldr	w0, [x20, #8]
  403000:	3100041f 	cmn	w0, #0x1
  403004:	54000081 	b.ne	403014 <_nl_load_domain+0xd34>  // b.any
  403008:	b9400680 	ldr	w0, [x20, #4]
  40300c:	a9006260 	stp	x0, x24, [x19]
  403010:	17ffff7a 	b	402df8 <_nl_load_domain+0xb18>
  403014:	91001294 	add	x20, x20, #0x4
  403018:	f9000679 	str	x25, [x19, #8]
  40301c:	f90077f3 	str	x19, [sp, #232]
  403020:	aa1903f3 	mov	x19, x25
  403024:	29406680 	ldp	w0, w25, [x20]
  403028:	6b09035f 	cmp	w26, w9
  40302c:	54000060 	b.eq	403038 <_nl_load_domain+0xd58>  // b.none
  403030:	5ac00800 	rev	w0, w0
  403034:	5ac00b39 	rev	w25, w25
  403038:	350001e0 	cbnz	w0, 403074 <_nl_load_domain+0xd94>
  40303c:	3100073f 	cmn	w25, #0x1
  403040:	540002c0 	b.eq	403098 <_nl_load_domain+0xdb8>  // b.none
  403044:	f8795ab9 	ldr	x25, [x21, w25, uxtw #3]
  403048:	91002294 	add	x20, x20, #0x8
  40304c:	aa1903e0 	mov	x0, x25
  403050:	97fff4a0 	bl	4002d0 <.plt+0x60>
  403054:	aa0003e2 	mov	x2, x0
  403058:	aa1903e1 	mov	x1, x25
  40305c:	aa1303e0 	mov	x0, x19
  403060:	8b020273 	add	x19, x19, x2
  403064:	97fff487 	bl	400280 <.plt+0x10>
  403068:	52825bc9 	mov	w9, #0x12de                	// #4830
  40306c:	72b2a089 	movk	w9, #0x9504, lsl #16
  403070:	17ffffed 	b	403024 <_nl_load_domain+0xd44>
  403074:	2a0003e2 	mov	w2, w0
  403078:	aa1803e1 	mov	x1, x24
  40307c:	aa1303e0 	mov	x0, x19
  403080:	8b020318 	add	x24, x24, x2
  403084:	8b020273 	add	x19, x19, x2
  403088:	97fff47e 	bl	400280 <.plt+0x10>
  40308c:	52825bc9 	mov	w9, #0x12de                	// #4830
  403090:	72b2a089 	movk	w9, #0x9504, lsl #16
  403094:	17ffffea 	b	40303c <_nl_load_domain+0xd5c>
  403098:	aa1303f9 	mov	x25, x19
  40309c:	f94077f3 	ldr	x19, [sp, #232]
  4030a0:	f9400660 	ldr	x0, [x19, #8]
  4030a4:	cb000320 	sub	x0, x25, x0
  4030a8:	f9000260 	str	x0, [x19]
  4030ac:	17ffff53 	b	402df8 <_nl_load_domain+0xb18>
  4030b0:	f9404be0 	ldr	x0, [sp, #144]
  4030b4:	f94057f3 	ldr	x19, [sp, #168]
  4030b8:	b87c7800 	ldr	w0, [x0, x28, lsl #2]
  4030bc:	5ac00800 	rev	w0, w0
  4030c0:	8b0002f4 	add	x20, x23, x0
  4030c4:	b8606af8 	ldr	w24, [x23, x0]
  4030c8:	5ac00b18 	rev	w24, w24
  4030cc:	8b1802f8 	add	x24, x23, x24
  4030d0:	17ffff44 	b	402de0 <_nl_load_domain+0xb00>
  4030d4:	f9404be0 	ldr	x0, [sp, #144]
  4030d8:	f94057f3 	ldr	x19, [sp, #168]
  4030dc:	b87c7800 	ldr	w0, [x0, x28, lsl #2]
  4030e0:	8b0002f4 	add	x20, x23, x0
  4030e4:	b8606af8 	ldr	w24, [x23, x0]
  4030e8:	8b1802f8 	add	x24, x23, x24
  4030ec:	17ffffc4 	b	402ffc <_nl_load_domain+0xd1c>
  4030f0:	aa0603e4 	mov	x4, x6
  4030f4:	17fffd2c 	b	4025a4 <_nl_load_domain+0x2c4>
  4030f8:	aa0703e4 	mov	x4, x7
  4030fc:	17fffd2a 	b	4025a4 <_nl_load_domain+0x2c4>
  403100:	39401c21 	ldrb	w1, [x1, #7]
  403104:	350002c1 	cbnz	w1, 40315c <_nl_load_domain+0xe7c>
  403108:	7101919f 	cmp	w12, #0x64
  40310c:	54000680 	b.eq	4031dc <_nl_load_domain+0xefc>  // b.none
  403110:	b9408be1 	ldr	w1, [sp, #136]
  403114:	35000581 	cbnz	w1, 4031c4 <_nl_load_domain+0xee4>
  403118:	7101bd9f 	cmp	w12, #0x6f
  40311c:	54000500 	b.eq	4031bc <_nl_load_domain+0xedc>  // b.none
  403120:	7101d59f 	cmp	w12, #0x75
  403124:	54000480 	b.eq	4031b4 <_nl_load_domain+0xed4>  // b.none
  403128:	7101e19f 	cmp	w12, #0x78
  40312c:	9a8d13c4 	csel	x4, x30, x13, ne  // ne = any
  403130:	17fffd1d 	b	4025a4 <_nl_load_domain+0x2c4>
  403134:	d2800004 	mov	x4, #0x0                   	// #0
  403138:	17fffd1b 	b	4025a4 <_nl_load_domain+0x2c4>
  40313c:	aa0703e4 	mov	x4, x7
  403140:	17fffd19 	b	4025a4 <_nl_load_domain+0x2c4>
  403144:	aa0803e4 	mov	x4, x8
  403148:	17fffd17 	b	4025a4 <_nl_load_domain+0x2c4>
  40314c:	aa0803e4 	mov	x4, x8
  403150:	17fffd15 	b	4025a4 <_nl_load_domain+0x2c4>
  403154:	aa0503e4 	mov	x4, x5
  403158:	17fffd13 	b	4025a4 <_nl_load_domain+0x2c4>
  40315c:	d2800004 	mov	x4, #0x0                   	// #0
  403160:	17fffd11 	b	4025a4 <_nl_load_domain+0x2c4>
  403164:	aa0703e4 	mov	x4, x7
  403168:	17fffd0f 	b	4025a4 <_nl_load_domain+0x2c4>
  40316c:	aa1103e4 	mov	x4, x17
  403170:	17fffd0d 	b	4025a4 <_nl_load_domain+0x2c4>
  403174:	aa1003e4 	mov	x4, x16
  403178:	17fffd0b 	b	4025a4 <_nl_load_domain+0x2c4>
  40317c:	aa0e03e4 	mov	x4, x14
  403180:	17fffd09 	b	4025a4 <_nl_load_domain+0x2c4>
  403184:	aa0f03e4 	mov	x4, x15
  403188:	17fffd07 	b	4025a4 <_nl_load_domain+0x2c4>
  40318c:	aa1003e4 	mov	x4, x16
  403190:	17fffd05 	b	4025a4 <_nl_load_domain+0x2c4>
  403194:	aa1103e4 	mov	x4, x17
  403198:	17fffd03 	b	4025a4 <_nl_load_domain+0x2c4>
  40319c:	aa0503e4 	mov	x4, x5
  4031a0:	17fffd01 	b	4025a4 <_nl_load_domain+0x2c4>
  4031a4:	aa0603e4 	mov	x4, x6
  4031a8:	17fffcff 	b	4025a4 <_nl_load_domain+0x2c4>
  4031ac:	aa0503e4 	mov	x4, x5
  4031b0:	17fffcfd 	b	4025a4 <_nl_load_domain+0x2c4>
  4031b4:	aa0e03e4 	mov	x4, x14
  4031b8:	17fffcfb 	b	4025a4 <_nl_load_domain+0x2c4>
  4031bc:	aa0f03e4 	mov	x4, x15
  4031c0:	17fffcf9 	b	4025a4 <_nl_load_domain+0x2c4>
  4031c4:	aa1003e4 	mov	x4, x16
  4031c8:	17fffcf7 	b	4025a4 <_nl_load_domain+0x2c4>
  4031cc:	aa0e03e4 	mov	x4, x14
  4031d0:	17fffcf5 	b	4025a4 <_nl_load_domain+0x2c4>
  4031d4:	aa0f03e4 	mov	x4, x15
  4031d8:	17fffcf3 	b	4025a4 <_nl_load_domain+0x2c4>
  4031dc:	aa1103e4 	mov	x4, x17
  4031e0:	17fffcf1 	b	4025a4 <_nl_load_domain+0x2c4>
  4031e4:	aa0603e4 	mov	x4, x6
  4031e8:	17fffcef 	b	4025a4 <_nl_load_domain+0x2c4>
  4031ec:	d2800004 	mov	x4, #0x0                   	// #0
  4031f0:	17fffced 	b	4025a4 <_nl_load_domain+0x2c4>
  4031f4:	39402c21 	ldrb	w1, [x1, #11]
  4031f8:	35001ba1 	cbnz	w1, 40356c <_nl_load_domain+0x128c>
  4031fc:	7101919f 	cmp	w12, #0x64
  403200:	54001b20 	b.eq	403564 <_nl_load_domain+0x1284>  // b.none
  403204:	b9408be1 	ldr	w1, [sp, #136]
  403208:	35001aa1 	cbnz	w1, 40355c <_nl_load_domain+0x127c>
  40320c:	7101bd9f 	cmp	w12, #0x6f
  403210:	54001a20 	b.eq	403554 <_nl_load_domain+0x1274>  // b.none
  403214:	7101d59f 	cmp	w12, #0x75
  403218:	540019a0 	b.eq	40354c <_nl_load_domain+0x126c>  // b.none
  40321c:	f94043e1 	ldr	x1, [sp, #128]
  403220:	7101e19f 	cmp	w12, #0x78
  403224:	90000284 	adrp	x4, 453000 <cpu_list+0x98>
  403228:	91042084 	add	x4, x4, #0x108
  40322c:	9a841024 	csel	x4, x1, x4, ne  // ne = any
  403230:	17fffcdd 	b	4025a4 <_nl_load_domain+0x2c4>
  403234:	7100d89f 	cmp	w4, #0x36
  403238:	54001001 	b.ne	403438 <_nl_load_domain+0x1158>  // b.any
  40323c:	39402824 	ldrb	w4, [x1, #10]
  403240:	7100d09f 	cmp	w4, #0x34
  403244:	54000e00 	b.eq	403404 <_nl_load_domain+0x1124>  // b.none
  403248:	d2800004 	mov	x4, #0x0                   	// #0
  40324c:	17fffcd6 	b	4025a4 <_nl_load_domain+0x2c4>
  403250:	39402821 	ldrb	w1, [x1, #10]
  403254:	35000681 	cbnz	w1, 403324 <_nl_load_domain+0x1044>
  403258:	7101919f 	cmp	w12, #0x64
  40325c:	54000600 	b.eq	40331c <_nl_load_domain+0x103c>  // b.none
  403260:	b9408be1 	ldr	w1, [sp, #136]
  403264:	35000581 	cbnz	w1, 403314 <_nl_load_domain+0x1034>
  403268:	7101bd9f 	cmp	w12, #0x6f
  40326c:	54000500 	b.eq	40330c <_nl_load_domain+0x102c>  // b.none
  403270:	7101d59f 	cmp	w12, #0x75
  403274:	54000160 	b.eq	4032a0 <_nl_load_domain+0xfc0>  // b.none
  403278:	7101e19f 	cmp	w12, #0x78
  40327c:	9a8d13c4 	csel	x4, x30, x13, ne  // ne = any
  403280:	17fffcc9 	b	4025a4 <_nl_load_domain+0x2c4>
  403284:	7100d89f 	cmp	w4, #0x36
  403288:	540002a1 	b.ne	4032dc <_nl_load_domain+0xffc>  // b.any
  40328c:	39402424 	ldrb	w4, [x1, #9]
  403290:	7100d09f 	cmp	w4, #0x34
  403294:	540000a0 	b.eq	4032a8 <_nl_load_domain+0xfc8>  // b.none
  403298:	d2800004 	mov	x4, #0x0                   	// #0
  40329c:	17fffcc2 	b	4025a4 <_nl_load_domain+0x2c4>
  4032a0:	aa0e03e4 	mov	x4, x14
  4032a4:	17fffcc0 	b	4025a4 <_nl_load_domain+0x2c4>
  4032a8:	39402821 	ldrb	w1, [x1, #10]
  4032ac:	350002c1 	cbnz	w1, 403304 <_nl_load_domain+0x1024>
  4032b0:	7101919f 	cmp	w12, #0x64
  4032b4:	54000240 	b.eq	4032fc <_nl_load_domain+0x101c>  // b.none
  4032b8:	b9408be1 	ldr	w1, [sp, #136]
  4032bc:	350001c1 	cbnz	w1, 4032f4 <_nl_load_domain+0x1014>
  4032c0:	7101bd9f 	cmp	w12, #0x6f
  4032c4:	54000140 	b.eq	4032ec <_nl_load_domain+0x100c>  // b.none
  4032c8:	7101d59f 	cmp	w12, #0x75
  4032cc:	540000c0 	b.eq	4032e4 <_nl_load_domain+0x1004>  // b.none
  4032d0:	7101e19f 	cmp	w12, #0x78
  4032d4:	9a8d13c4 	csel	x4, x30, x13, ne  // ne = any
  4032d8:	17fffcb3 	b	4025a4 <_nl_load_domain+0x2c4>
  4032dc:	d2800004 	mov	x4, #0x0                   	// #0
  4032e0:	17fffcb1 	b	4025a4 <_nl_load_domain+0x2c4>
  4032e4:	aa0e03e4 	mov	x4, x14
  4032e8:	17fffcaf 	b	4025a4 <_nl_load_domain+0x2c4>
  4032ec:	aa0f03e4 	mov	x4, x15
  4032f0:	17fffcad 	b	4025a4 <_nl_load_domain+0x2c4>
  4032f4:	aa1003e4 	mov	x4, x16
  4032f8:	17fffcab 	b	4025a4 <_nl_load_domain+0x2c4>
  4032fc:	aa1103e4 	mov	x4, x17
  403300:	17fffca9 	b	4025a4 <_nl_load_domain+0x2c4>
  403304:	d2800004 	mov	x4, #0x0                   	// #0
  403308:	17fffca7 	b	4025a4 <_nl_load_domain+0x2c4>
  40330c:	aa0f03e4 	mov	x4, x15
  403310:	17fffca5 	b	4025a4 <_nl_load_domain+0x2c4>
  403314:	aa1003e4 	mov	x4, x16
  403318:	17fffca3 	b	4025a4 <_nl_load_domain+0x2c4>
  40331c:	aa1103e4 	mov	x4, x17
  403320:	17fffca1 	b	4025a4 <_nl_load_domain+0x2c4>
  403324:	d2800004 	mov	x4, #0x0                   	// #0
  403328:	17fffc9f 	b	4025a4 <_nl_load_domain+0x2c4>
  40332c:	39402424 	ldrb	w4, [x1, #9]
  403330:	7100d89f 	cmp	w4, #0x36
  403334:	54000260 	b.eq	403380 <_nl_load_domain+0x10a0>  // b.none
  403338:	d2800004 	mov	x4, #0x0                   	// #0
  40333c:	17fffc9a 	b	4025a4 <_nl_load_domain+0x2c4>
  403340:	39402421 	ldrb	w1, [x1, #9]
  403344:	350005c1 	cbnz	w1, 4033fc <_nl_load_domain+0x111c>
  403348:	7101919f 	cmp	w12, #0x64
  40334c:	54000540 	b.eq	4033f4 <_nl_load_domain+0x1114>  // b.none
  403350:	b9408be1 	ldr	w1, [sp, #136]
  403354:	350004c1 	cbnz	w1, 4033ec <_nl_load_domain+0x110c>
  403358:	7101bd9f 	cmp	w12, #0x6f
  40335c:	54000440 	b.eq	4033e4 <_nl_load_domain+0x1104>  // b.none
  403360:	7101d59f 	cmp	w12, #0x75
  403364:	54000280 	b.eq	4033b4 <_nl_load_domain+0x10d4>  // b.none
  403368:	f94043e1 	ldr	x1, [sp, #128]
  40336c:	7101e19f 	cmp	w12, #0x78
  403370:	90000284 	adrp	x4, 453000 <cpu_list+0x98>
  403374:	91042084 	add	x4, x4, #0x108
  403378:	9a810084 	csel	x4, x4, x1, eq  // eq = none
  40337c:	17fffc8a 	b	4025a4 <_nl_load_domain+0x2c4>
  403380:	39402821 	ldrb	w1, [x1, #10]
  403384:	350002c1 	cbnz	w1, 4033dc <_nl_load_domain+0x10fc>
  403388:	7101919f 	cmp	w12, #0x64
  40338c:	54000240 	b.eq	4033d4 <_nl_load_domain+0x10f4>  // b.none
  403390:	b9408be1 	ldr	w1, [sp, #136]
  403394:	350001c1 	cbnz	w1, 4033cc <_nl_load_domain+0x10ec>
  403398:	7101bd9f 	cmp	w12, #0x6f
  40339c:	54000140 	b.eq	4033c4 <_nl_load_domain+0x10e4>  // b.none
  4033a0:	7101d59f 	cmp	w12, #0x75
  4033a4:	540000c0 	b.eq	4033bc <_nl_load_domain+0x10dc>  // b.none
  4033a8:	7101e19f 	cmp	w12, #0x78
  4033ac:	9a8d13c4 	csel	x4, x30, x13, ne  // ne = any
  4033b0:	17fffc7d 	b	4025a4 <_nl_load_domain+0x2c4>
  4033b4:	aa0503e4 	mov	x4, x5
  4033b8:	17fffc7b 	b	4025a4 <_nl_load_domain+0x2c4>
  4033bc:	aa0e03e4 	mov	x4, x14
  4033c0:	17fffc79 	b	4025a4 <_nl_load_domain+0x2c4>
  4033c4:	aa0f03e4 	mov	x4, x15
  4033c8:	17fffc77 	b	4025a4 <_nl_load_domain+0x2c4>
  4033cc:	aa1003e4 	mov	x4, x16
  4033d0:	17fffc75 	b	4025a4 <_nl_load_domain+0x2c4>
  4033d4:	aa1103e4 	mov	x4, x17
  4033d8:	17fffc73 	b	4025a4 <_nl_load_domain+0x2c4>
  4033dc:	d2800004 	mov	x4, #0x0                   	// #0
  4033e0:	17fffc71 	b	4025a4 <_nl_load_domain+0x2c4>
  4033e4:	aa0603e4 	mov	x4, x6
  4033e8:	17fffc6f 	b	4025a4 <_nl_load_domain+0x2c4>
  4033ec:	aa0703e4 	mov	x4, x7
  4033f0:	17fffc6d 	b	4025a4 <_nl_load_domain+0x2c4>
  4033f4:	aa0803e4 	mov	x4, x8
  4033f8:	17fffc6b 	b	4025a4 <_nl_load_domain+0x2c4>
  4033fc:	d2800004 	mov	x4, #0x0                   	// #0
  403400:	17fffc69 	b	4025a4 <_nl_load_domain+0x2c4>
  403404:	39402c21 	ldrb	w1, [x1, #11]
  403408:	350002c1 	cbnz	w1, 403460 <_nl_load_domain+0x1180>
  40340c:	7101919f 	cmp	w12, #0x64
  403410:	54000240 	b.eq	403458 <_nl_load_domain+0x1178>  // b.none
  403414:	b9408be1 	ldr	w1, [sp, #136]
  403418:	350001c1 	cbnz	w1, 403450 <_nl_load_domain+0x1170>
  40341c:	7101bd9f 	cmp	w12, #0x6f
  403420:	54000140 	b.eq	403448 <_nl_load_domain+0x1168>  // b.none
  403424:	7101d59f 	cmp	w12, #0x75
  403428:	540000c0 	b.eq	403440 <_nl_load_domain+0x1160>  // b.none
  40342c:	7101e19f 	cmp	w12, #0x78
  403430:	9a9e01a4 	csel	x4, x13, x30, eq  // eq = none
  403434:	17fffc5c 	b	4025a4 <_nl_load_domain+0x2c4>
  403438:	d2800004 	mov	x4, #0x0                   	// #0
  40343c:	17fffc5a 	b	4025a4 <_nl_load_domain+0x2c4>
  403440:	aa0e03e4 	mov	x4, x14
  403444:	17fffc58 	b	4025a4 <_nl_load_domain+0x2c4>
  403448:	aa0f03e4 	mov	x4, x15
  40344c:	17fffc56 	b	4025a4 <_nl_load_domain+0x2c4>
  403450:	aa1003e4 	mov	x4, x16
  403454:	17fffc54 	b	4025a4 <_nl_load_domain+0x2c4>
  403458:	aa1103e4 	mov	x4, x17
  40345c:	17fffc52 	b	4025a4 <_nl_load_domain+0x2c4>
  403460:	d2800004 	mov	x4, #0x0                   	// #0
  403464:	17fffc50 	b	4025a4 <_nl_load_domain+0x2c4>
  403468:	39402824 	ldrb	w4, [x1, #10]
  40346c:	7100d89f 	cmp	w4, #0x36
  403470:	54000260 	b.eq	4034bc <_nl_load_domain+0x11dc>  // b.none
  403474:	d2800004 	mov	x4, #0x0                   	// #0
  403478:	17fffc4b 	b	4025a4 <_nl_load_domain+0x2c4>
  40347c:	39402821 	ldrb	w1, [x1, #10]
  403480:	35000621 	cbnz	w1, 403544 <_nl_load_domain+0x1264>
  403484:	7101919f 	cmp	w12, #0x64
  403488:	540005a0 	b.eq	40353c <_nl_load_domain+0x125c>  // b.none
  40348c:	b9408be1 	ldr	w1, [sp, #136]
  403490:	35000521 	cbnz	w1, 403534 <_nl_load_domain+0x1254>
  403494:	7101bd9f 	cmp	w12, #0x6f
  403498:	540004a0 	b.eq	40352c <_nl_load_domain+0x124c>  // b.none
  40349c:	7101d59f 	cmp	w12, #0x75
  4034a0:	540002e0 	b.eq	4034fc <_nl_load_domain+0x121c>  // b.none
  4034a4:	f94043e1 	ldr	x1, [sp, #128]
  4034a8:	7101e19f 	cmp	w12, #0x78
  4034ac:	90000284 	adrp	x4, 453000 <cpu_list+0x98>
  4034b0:	91042084 	add	x4, x4, #0x108
  4034b4:	9a841024 	csel	x4, x1, x4, ne  // ne = any
  4034b8:	17fffc3b 	b	4025a4 <_nl_load_domain+0x2c4>
  4034bc:	39402c21 	ldrb	w1, [x1, #11]
  4034c0:	35000321 	cbnz	w1, 403524 <_nl_load_domain+0x1244>
  4034c4:	7101919f 	cmp	w12, #0x64
  4034c8:	540002a0 	b.eq	40351c <_nl_load_domain+0x123c>  // b.none
  4034cc:	b9408be1 	ldr	w1, [sp, #136]
  4034d0:	35000221 	cbnz	w1, 403514 <_nl_load_domain+0x1234>
  4034d4:	7101bd9f 	cmp	w12, #0x6f
  4034d8:	540001a0 	b.eq	40350c <_nl_load_domain+0x122c>  // b.none
  4034dc:	7101d59f 	cmp	w12, #0x75
  4034e0:	54000120 	b.eq	403504 <_nl_load_domain+0x1224>  // b.none
  4034e4:	f94043e1 	ldr	x1, [sp, #128]
  4034e8:	7101e19f 	cmp	w12, #0x78
  4034ec:	90000284 	adrp	x4, 453000 <cpu_list+0x98>
  4034f0:	91042084 	add	x4, x4, #0x108
  4034f4:	9a841024 	csel	x4, x1, x4, ne  // ne = any
  4034f8:	17fffc2b 	b	4025a4 <_nl_load_domain+0x2c4>
  4034fc:	aa0503e4 	mov	x4, x5
  403500:	17fffc29 	b	4025a4 <_nl_load_domain+0x2c4>
  403504:	aa0503e4 	mov	x4, x5
  403508:	17fffc27 	b	4025a4 <_nl_load_domain+0x2c4>
  40350c:	aa0603e4 	mov	x4, x6
  403510:	17fffc25 	b	4025a4 <_nl_load_domain+0x2c4>
  403514:	aa0703e4 	mov	x4, x7
  403518:	17fffc23 	b	4025a4 <_nl_load_domain+0x2c4>
  40351c:	aa0803e4 	mov	x4, x8
  403520:	17fffc21 	b	4025a4 <_nl_load_domain+0x2c4>
  403524:	d2800004 	mov	x4, #0x0                   	// #0
  403528:	17fffc1f 	b	4025a4 <_nl_load_domain+0x2c4>
  40352c:	aa0603e4 	mov	x4, x6
  403530:	17fffc1d 	b	4025a4 <_nl_load_domain+0x2c4>
  403534:	aa0703e4 	mov	x4, x7
  403538:	17fffc1b 	b	4025a4 <_nl_load_domain+0x2c4>
  40353c:	aa0803e4 	mov	x4, x8
  403540:	17fffc19 	b	4025a4 <_nl_load_domain+0x2c4>
  403544:	d2800004 	mov	x4, #0x0                   	// #0
  403548:	17fffc17 	b	4025a4 <_nl_load_domain+0x2c4>
  40354c:	aa0503e4 	mov	x4, x5
  403550:	17fffc15 	b	4025a4 <_nl_load_domain+0x2c4>
  403554:	aa0603e4 	mov	x4, x6
  403558:	17fffc13 	b	4025a4 <_nl_load_domain+0x2c4>
  40355c:	aa0703e4 	mov	x4, x7
  403560:	17fffc11 	b	4025a4 <_nl_load_domain+0x2c4>
  403564:	aa0803e4 	mov	x4, x8
  403568:	17fffc0f 	b	4025a4 <_nl_load_domain+0x2c4>
  40356c:	d2800004 	mov	x4, #0x0                   	// #0
  403570:	17fffc0d 	b	4025a4 <_nl_load_domain+0x2c4>
  403574:	97fff363 	bl	400300 <abort>
  403578:	d503201f 	nop
  40357c:	d503201f 	nop

0000000000403580 <alias_compare>:
  403580:	f9400000 	ldr	x0, [x0]
  403584:	d0000302 	adrp	x2, 465000 <translit_from_idx+0x17e0>
  403588:	f9400021 	ldr	x1, [x1]
  40358c:	9108c042 	add	x2, x2, #0x230
  403590:	140046b0 	b	415050 <__strcasecmp_l>

0000000000403594 <read_alias_file>:
  403594:	d10883ff 	sub	sp, sp, #0x220
  403598:	a9007bfd 	stp	x29, x30, [sp]
  40359c:	910003fd 	mov	x29, sp
  4035a0:	a90153f3 	stp	x19, x20, [sp, #16]
  4035a4:	93407c33 	sxtw	x19, w1
  4035a8:	aa0003e1 	mov	x1, x0
  4035ac:	91007660 	add	x0, x19, #0x1d
  4035b0:	a9025bf5 	stp	x21, x22, [sp, #32]
  4035b4:	927cec00 	and	x0, x0, #0xfffffffffffffff0
  4035b8:	a90363f7 	stp	x23, x24, [sp, #48]
  4035bc:	aa1303e2 	mov	x2, x19
  4035c0:	aa1303f4 	mov	x20, x19
  4035c4:	a9046bf9 	stp	x25, x26, [sp, #64]
  4035c8:	a90573fb 	stp	x27, x28, [sp, #80]
  4035cc:	cb2063ff 	sub	sp, sp, x0
  4035d0:	910003e4 	mov	x4, sp
  4035d4:	aa0403e0 	mov	x0, x4
  4035d8:	97fff32a 	bl	400280 <.plt+0x10>
  4035dc:	8b130013 	add	x19, x0, x19
  4035e0:	90000282 	adrp	x2, 453000 <cpu_list+0x98>
  4035e4:	91054042 	add	x2, x2, #0x150
  4035e8:	90000281 	adrp	x1, 453000 <cpu_list+0x98>
  4035ec:	91052021 	add	x1, x1, #0x148
  4035f0:	f9400044 	ldr	x4, [x2]
  4035f4:	f834c804 	str	x4, [x0, w20, sxtw]
  4035f8:	f8406042 	ldur	x2, [x2, #6]
  4035fc:	f8006262 	stur	x2, [x19, #6]
  403600:	94000d41 	bl	406b04 <_IO_new_fopen>
  403604:	b4001780 	cbz	x0, 4038f4 <read_alias_file+0x360>
  403608:	b9400001 	ldr	w1, [x0]
  40360c:	aa0003f5 	mov	x21, x0
  403610:	d2800018 	mov	x24, #0x0                   	// #0
  403614:	32110022 	orr	w2, w1, #0x8000
  403618:	b9000002 	str	w2, [x0]
  40361c:	372018c1 	tbnz	w1, #4, 403934 <read_alias_file+0x3a0>
  403620:	90000440 	adrp	x0, 48b000 <__FRAME_END__+0x103d8>
  403624:	f947d400 	ldr	x0, [x0, #4008]
  403628:	d53bd056 	mrs	x22, tpidr_el0
  40362c:	f0000457 	adrp	x23, 48e000 <static_slotinfo+0x2b0>
  403630:	910ac2f7 	add	x23, x23, #0x2b0
  403634:	8b0002d6 	add	x22, x22, x0
  403638:	aa1503e2 	mov	x2, x21
  40363c:	910243a0 	add	x0, x29, #0x90
  403640:	52803201 	mov	w1, #0x190                 	// #400
  403644:	940015ab 	bl	408cf0 <__fgets_unlocked>
  403648:	b40002c0 	cbz	x0, 4036a0 <read_alias_file+0x10c>
  40364c:	52800141 	mov	w1, #0xa                   	// #10
  403650:	910243a0 	add	x0, x29, #0x90
  403654:	940041bb 	bl	413d40 <strchr>
  403658:	910243b3 	add	x19, x29, #0x90
  40365c:	394243a1 	ldrb	w1, [x29, #144]
  403660:	aa0003f9 	mov	x25, x0
  403664:	f94002c3 	ldr	x3, [x22]
  403668:	d37f1c22 	ubfiz	x2, x1, #1, #8
  40366c:	78626862 	ldrh	w2, [x3, x2]
  403670:	366800c2 	tbz	w2, #13, 403688 <read_alias_file+0xf4>
  403674:	d503201f 	nop
  403678:	38401e61 	ldrb	w1, [x19, #1]!
  40367c:	d37f1c22 	ubfiz	x2, x1, #1, #8
  403680:	78626862 	ldrh	w2, [x3, x2]
  403684:	376fffa2 	tbnz	w2, #13, 403678 <read_alias_file+0xe4>
  403688:	71008c3f 	cmp	w1, #0x23
  40368c:	7a401824 	ccmp	w1, #0x0, #0x4, ne  // ne = any
  403690:	54000461 	b.ne	40371c <read_alias_file+0x188>  // b.any
  403694:	b4000399 	cbz	x25, 403704 <read_alias_file+0x170>
  403698:	b94002a0 	ldr	w0, [x21]
  40369c:	3627fce0 	tbz	w0, #4, 403638 <read_alias_file+0xa4>
  4036a0:	aa1503e0 	mov	x0, x21
  4036a4:	94000bdb 	bl	406610 <_IO_new_fclose>
  4036a8:	b4000138 	cbz	x24, 4036cc <read_alias_file+0x138>
  4036ac:	f0000441 	adrp	x1, 48e000 <static_slotinfo+0x2b0>
  4036b0:	f0000460 	adrp	x0, 492000 <__pthread_keys+0x3868>
  4036b4:	90000003 	adrp	x3, 403000 <_nl_load_domain+0xd20>
  4036b8:	d2800202 	mov	x2, #0x10                  	// #16
  4036bc:	f9415821 	ldr	x1, [x1, #688]
  4036c0:	91160063 	add	x3, x3, #0x580
  4036c4:	f947a400 	ldr	x0, [x0, #3912]
  4036c8:	9400078a 	bl	4054f0 <qsort>
  4036cc:	910003bf 	mov	sp, x29
  4036d0:	aa1803e0 	mov	x0, x24
  4036d4:	a9407bfd 	ldp	x29, x30, [sp]
  4036d8:	a94153f3 	ldp	x19, x20, [sp, #16]
  4036dc:	a9425bf5 	ldp	x21, x22, [sp, #32]
  4036e0:	a94363f7 	ldp	x23, x24, [sp, #48]
  4036e4:	a9446bf9 	ldp	x25, x26, [sp, #64]
  4036e8:	a94573fb 	ldp	x27, x28, [sp, #80]
  4036ec:	910883ff 	add	sp, sp, #0x220
  4036f0:	d65f03c0 	ret
  4036f4:	910243a0 	add	x0, x29, #0x90
  4036f8:	52800141 	mov	w1, #0xa                   	// #10
  4036fc:	94004191 	bl	413d40 <strchr>
  403700:	b5fffcc0 	cbnz	x0, 403698 <read_alias_file+0x104>
  403704:	aa1503e2 	mov	x2, x21
  403708:	910243a0 	add	x0, x29, #0x90
  40370c:	52803201 	mov	w1, #0x190                 	// #400
  403710:	94001578 	bl	408cf0 <__fgets_unlocked>
  403714:	b5ffff00 	cbnz	x0, 4036f4 <read_alias_file+0x160>
  403718:	17ffffe0 	b	403698 <read_alias_file+0x104>
  40371c:	39400661 	ldrb	w1, [x19, #1]
  403720:	91000674 	add	x20, x19, #0x1
  403724:	35000061 	cbnz	w1, 403730 <read_alias_file+0x19c>
  403728:	14000009 	b	40374c <read_alias_file+0x1b8>
  40372c:	34000101 	cbz	w1, 40374c <read_alias_file+0x1b8>
  403730:	d37f1c22 	ubfiz	x2, x1, #1, #8
  403734:	aa1403e4 	mov	x4, x20
  403738:	39400681 	ldrb	w1, [x20, #1]
  40373c:	91000694 	add	x20, x20, #0x1
  403740:	78626862 	ldrh	w2, [x3, x2]
  403744:	366fff42 	tbz	w2, #13, 40372c <read_alias_file+0x198>
  403748:	3900009f 	strb	wzr, [x4]
  40374c:	d37f1c20 	ubfiz	x0, x1, #1, #8
  403750:	78606860 	ldrh	w0, [x3, x0]
  403754:	366800a0 	tbz	w0, #13, 403768 <read_alias_file+0x1d4>
  403758:	38401e81 	ldrb	w1, [x20, #1]!
  40375c:	d37f1c22 	ubfiz	x2, x1, #1, #8
  403760:	78626862 	ldrh	w2, [x3, x2]
  403764:	376fffa2 	tbnz	w2, #13, 403758 <read_alias_file+0x1c4>
  403768:	34fff961 	cbz	w1, 403694 <read_alias_file+0x100>
  40376c:	39400681 	ldrb	w1, [x20, #1]
  403770:	91000680 	add	x0, x20, #0x1
  403774:	35000081 	cbnz	w1, 403784 <read_alias_file+0x1f0>
  403778:	1400000a 	b	4037a0 <read_alias_file+0x20c>
  40377c:	38401c01 	ldrb	w1, [x0, #1]!
  403780:	34000101 	cbz	w1, 4037a0 <read_alias_file+0x20c>
  403784:	d37f1c22 	ubfiz	x2, x1, #1, #8
  403788:	78626862 	ldrh	w2, [x3, x2]
  40378c:	366fff82 	tbz	w2, #13, 40377c <read_alias_file+0x1e8>
  403790:	7100283f 	cmp	w1, #0xa
  403794:	54000a61 	b.ne	4038e0 <read_alias_file+0x34c>  // b.any
  403798:	52814001 	mov	w1, #0xa00                 	// #2560
  40379c:	79000001 	strh	w1, [x0]
  4037a0:	a94002fa 	ldp	x26, x0, [x23]
  4037a4:	f000047b 	adrp	x27, 492000 <__pthread_keys+0x3868>
  4037a8:	913d2363 	add	x3, x27, #0xf48
  4037ac:	eb00035f 	cmp	x26, x0
  4037b0:	540007e2 	b.cs	4038ac <read_alias_file+0x318>  // b.hs, b.nlast
  4037b4:	aa1303e0 	mov	x0, x19
  4037b8:	f90043a3 	str	x3, [x29, #128]
  4037bc:	97fff2c5 	bl	4002d0 <.plt+0x60>
  4037c0:	aa0003e2 	mov	x2, x0
  4037c4:	91000442 	add	x2, x2, #0x1
  4037c8:	aa1403e0 	mov	x0, x20
  4037cc:	f90047a2 	str	x2, [x29, #136]
  4037d0:	97fff2c0 	bl	4002d0 <.plt+0x60>
  4037d4:	9100041c 	add	x28, x0, #0x1
  4037d8:	a94106e9 	ldp	x9, x1, [x23, #16]
  4037dc:	a9480ba3 	ldp	x3, x2, [x29, #128]
  4037e0:	8b020128 	add	x8, x9, x2
  4037e4:	8b1c0107 	add	x7, x8, x28
  4037e8:	f940047b 	ldr	x27, [x3, #8]
  4037ec:	eb0100ff 	cmp	x7, x1
  4037f0:	540002e9 	b.ls	40384c <read_alias_file+0x2b8>  // b.plast
  4037f4:	8b1c0044 	add	x4, x2, x28
  4037f8:	d2808005 	mov	x5, #0x400                 	// #1024
  4037fc:	eb05009f 	cmp	x4, x5
  403800:	aa1b03e0 	mov	x0, x27
  403804:	9a852084 	csel	x4, x4, x5, cs  // cs = hs, nlast
  403808:	a9061fa3 	stp	x3, x7, [x29, #96]
  40380c:	8b010081 	add	x1, x4, x1
  403810:	a90727a8 	stp	x8, x9, [x29, #112]
  403814:	a90807a2 	stp	x2, x1, [x29, #128]
  403818:	94003cf6 	bl	412bf0 <__libc_realloc>
  40381c:	b4fff420 	cbz	x0, 4036a0 <read_alias_file+0x10c>
  403820:	a9461fa3 	ldp	x3, x7, [x29, #96]
  403824:	eb1b001f 	cmp	x0, x27
  403828:	a94727a8 	ldp	x8, x9, [x29, #112]
  40382c:	a94807a2 	ldp	x2, x1, [x29, #128]
  403830:	f9400066 	ldr	x6, [x3]
  403834:	54000641 	b.ne	4038fc <read_alias_file+0x368>  // b.any
  403838:	d37cef45 	lsl	x5, x26, #4
  40383c:	aa0003fb 	mov	x27, x0
  403840:	f9000460 	str	x0, [x3, #8]
  403844:	f9000ee1 	str	x1, [x23, #24]
  403848:	14000003 	b	403854 <read_alias_file+0x2c0>
  40384c:	f9400066 	ldr	x6, [x3]
  403850:	d37cef45 	lsl	x5, x26, #4
  403854:	8b0500c3 	add	x3, x6, x5
  403858:	aa1303e1 	mov	x1, x19
  40385c:	8b090360 	add	x0, x27, x9
  403860:	a906a3a7 	stp	x7, x8, [x29, #104]
  403864:	9100075a 	add	x26, x26, #0x1
  403868:	a9079ba5 	stp	x5, x6, [x29, #120]
  40386c:	91000718 	add	x24, x24, #0x1
  403870:	f90047a3 	str	x3, [x29, #136]
  403874:	97fff283 	bl	400280 <.plt+0x10>
  403878:	a94717a8 	ldp	x8, x5, [x29, #112]
  40387c:	aa1c03e2 	mov	x2, x28
  403880:	f94043a6 	ldr	x6, [x29, #128]
  403884:	aa1403e1 	mov	x1, x20
  403888:	f82568c0 	str	x0, [x6, x5]
  40388c:	8b080360 	add	x0, x27, x8
  403890:	97fff27c 	bl	400280 <.plt+0x10>
  403894:	f90002fa 	str	x26, [x23]
  403898:	f94047a3 	ldr	x3, [x29, #136]
  40389c:	f94037a7 	ldr	x7, [x29, #104]
  4038a0:	f9000ae7 	str	x7, [x23, #16]
  4038a4:	f9000460 	str	x0, [x3, #8]
  4038a8:	17ffff7b 	b	403694 <read_alias_file+0x100>
  4038ac:	b50001e0 	cbnz	x0, 4038e8 <read_alias_file+0x354>
  4038b0:	d280c801 	mov	x1, #0x640                 	// #1600
  4038b4:	d2800c9c 	mov	x28, #0x64                  	// #100
  4038b8:	f000047b 	adrp	x27, 492000 <__pthread_keys+0x3868>
  4038bc:	913d2363 	add	x3, x27, #0xf48
  4038c0:	f90047a3 	str	x3, [x29, #136]
  4038c4:	f947a760 	ldr	x0, [x27, #3912]
  4038c8:	94003cca 	bl	412bf0 <__libc_realloc>
  4038cc:	b4ffeea0 	cbz	x0, 4036a0 <read_alias_file+0x10c>
  4038d0:	f907a760 	str	x0, [x27, #3912]
  4038d4:	f90006fc 	str	x28, [x23, #8]
  4038d8:	f94047a3 	ldr	x3, [x29, #136]
  4038dc:	17ffffb6 	b	4037b4 <read_alias_file+0x220>
  4038e0:	3900001f 	strb	wzr, [x0]
  4038e4:	17ffffaf 	b	4037a0 <read_alias_file+0x20c>
  4038e8:	d37ff81c 	lsl	x28, x0, #1
  4038ec:	d37be801 	lsl	x1, x0, #5
  4038f0:	17fffff2 	b	4038b8 <read_alias_file+0x324>
  4038f4:	d2800018 	mov	x24, #0x0                   	// #0
  4038f8:	17ffff75 	b	4036cc <read_alias_file+0x138>
  4038fc:	d2800005 	mov	x5, #0x0                   	// #0
  403900:	b4fff9fa 	cbz	x26, 40383c <read_alias_file+0x2a8>
  403904:	d37cef45 	lsl	x5, x26, #4
  403908:	cb1b001b 	sub	x27, x0, x27
  40390c:	8b0500cc 	add	x12, x6, x5
  403910:	aa0603e4 	mov	x4, x6
  403914:	a940288b 	ldp	x11, x10, [x4]
  403918:	8b1b016b 	add	x11, x11, x27
  40391c:	8b1b014a 	add	x10, x10, x27
  403920:	a900288b 	stp	x11, x10, [x4]
  403924:	91004084 	add	x4, x4, #0x10
  403928:	eb04019f 	cmp	x12, x4
  40392c:	54ffff41 	b.ne	403914 <read_alias_file+0x380>  // b.any
  403930:	17ffffc3 	b	40383c <read_alias_file+0x2a8>
  403934:	94000b37 	bl	406610 <_IO_new_fclose>
  403938:	17ffff65 	b	4036cc <read_alias_file+0x138>
  40393c:	d503201f 	nop

0000000000403940 <_nl_expand_alias>:
  403940:	a9bb7bfd 	stp	x29, x30, [sp, #-80]!
  403944:	52800021 	mov	w1, #0x1                   	// #1
  403948:	910003fd 	mov	x29, sp
  40394c:	a90153f3 	stp	x19, x20, [sp, #16]
  403950:	f0000453 	adrp	x19, 48e000 <static_slotinfo+0x2b0>
  403954:	910ac273 	add	x19, x19, #0x2b0
  403958:	91008274 	add	x20, x19, #0x20
  40395c:	a9025bf5 	stp	x21, x22, [sp, #32]
  403960:	aa1403e2 	mov	x2, x20
  403964:	aa0003f5 	mov	x21, x0
  403968:	52800000 	mov	w0, #0x0                   	// #0
  40396c:	a90363f7 	stp	x23, x24, [sp, #48]
  403970:	a9046bf9 	stp	x25, x26, [sp, #64]
  403974:	940124eb 	bl	44cd20 <__aarch64_cas4_acq>
  403978:	35000c60 	cbnz	w0, 403b04 <_nl_expand_alias+0x1c4>
  40397c:	f9401660 	ldr	x0, [x19, #40]
  403980:	b40009a0 	cbz	x0, 403ab4 <_nl_expand_alias+0x174>
  403984:	f9400277 	ldr	x23, [x19]
  403988:	d0000314 	adrp	x20, 465000 <translit_from_idx+0x17e0>
  40398c:	9108c294 	add	x20, x20, #0x230
  403990:	b5000677 	cbnz	x23, 403a5c <_nl_expand_alias+0x11c>
  403994:	f9401663 	ldr	x3, [x19, #40]
  403998:	52800001 	mov	w1, #0x0                   	// #0
  40399c:	39400060 	ldrb	w0, [x3]
  4039a0:	340002c0 	cbz	w0, 4039f8 <_nl_expand_alias+0xb8>
  4039a4:	d503201f 	nop
  4039a8:	91000461 	add	x1, x3, #0x1
  4039ac:	7100e81f 	cmp	w0, #0x3a
  4039b0:	540007e1 	b.ne	403aac <_nl_expand_alias+0x16c>  // b.any
  4039b4:	d503201f 	nop
  4039b8:	aa0103e0 	mov	x0, x1
  4039bc:	38401422 	ldrb	w2, [x1], #1
  4039c0:	7100e85f 	cmp	w2, #0x3a
  4039c4:	54ffffa0 	b.eq	4039b8 <_nl_expand_alias+0x78>  // b.none
  4039c8:	34000382 	cbz	w2, 403a38 <_nl_expand_alias+0xf8>
  4039cc:	91000401 	add	x1, x0, #0x1
  4039d0:	aa0103e3 	mov	x3, x1
  4039d4:	38401422 	ldrb	w2, [x1], #1
  4039d8:	7100e85f 	cmp	w2, #0x3a
  4039dc:	7a401844 	ccmp	w2, #0x0, #0x4, ne  // ne = any
  4039e0:	54ffff81 	b.ne	4039d0 <_nl_expand_alias+0x90>  // b.any
  4039e4:	eb00007f 	cmp	x3, x0
  4039e8:	540002e8 	b.hi	403a44 <_nl_expand_alias+0x104>  // b.pmore
  4039ec:	52800021 	mov	w1, #0x1                   	// #1
  4039f0:	39400060 	ldrb	w0, [x3]
  4039f4:	35fffda0 	cbnz	w0, 4039a8 <_nl_expand_alias+0x68>
  4039f8:	34000041 	cbz	w1, 403a00 <_nl_expand_alias+0xc0>
  4039fc:	f9001663 	str	x3, [x19, #40]
  403a00:	91008273 	add	x19, x19, #0x20
  403a04:	d2800014 	mov	x20, #0x0                   	// #0
  403a08:	aa1303e1 	mov	x1, x19
  403a0c:	52800000 	mov	w0, #0x0                   	// #0
  403a10:	94012558 	bl	44cf70 <__aarch64_swp4_rel>
  403a14:	7100041f 	cmp	w0, #0x1
  403a18:	5400064c 	b.gt	403ae0 <_nl_expand_alias+0x1a0>
  403a1c:	aa1403e0 	mov	x0, x20
  403a20:	a94153f3 	ldp	x19, x20, [sp, #16]
  403a24:	a9425bf5 	ldp	x21, x22, [sp, #32]
  403a28:	a94363f7 	ldp	x23, x24, [sp, #48]
  403a2c:	a9446bf9 	ldp	x25, x26, [sp, #64]
  403a30:	a8c57bfd 	ldp	x29, x30, [sp], #80
  403a34:	d65f03c0 	ret
  403a38:	aa0003e3 	mov	x3, x0
  403a3c:	52800021 	mov	w1, #0x1                   	// #1
  403a40:	17ffffec 	b	4039f0 <_nl_expand_alias+0xb0>
  403a44:	4b000061 	sub	w1, w3, w0
  403a48:	f9001663 	str	x3, [x19, #40]
  403a4c:	97fffed2 	bl	403594 <read_alias_file>
  403a50:	b4fffa20 	cbz	x0, 403994 <_nl_expand_alias+0x54>
  403a54:	f9400277 	ldr	x23, [x19]
  403a58:	b4fff9f7 	cbz	x23, 403994 <_nl_expand_alias+0x54>
  403a5c:	f0000460 	adrp	x0, 492000 <__pthread_keys+0x3868>
  403a60:	d2800018 	mov	x24, #0x0                   	// #0
  403a64:	f947a419 	ldr	x25, [x0, #3912]
  403a68:	14000005 	b	403a7c <_nl_expand_alias+0x13c>
  403a6c:	540002c0 	b.eq	403ac4 <_nl_expand_alias+0x184>  // b.none
  403a70:	910006d8 	add	x24, x22, #0x1
  403a74:	eb1802ff 	cmp	x23, x24
  403a78:	54fff8e9 	b.ls	403994 <_nl_expand_alias+0x54>  // b.plast
  403a7c:	8b170316 	add	x22, x24, x23
  403a80:	aa1403e2 	mov	x2, x20
  403a84:	aa1503e0 	mov	x0, x21
  403a88:	d341fed6 	lsr	x22, x22, #1
  403a8c:	d37ceec1 	lsl	x1, x22, #4
  403a90:	8b01033a 	add	x26, x25, x1
  403a94:	f8616b21 	ldr	x1, [x25, x1]
  403a98:	9400456e 	bl	415050 <__strcasecmp_l>
  403a9c:	7100001f 	cmp	w0, #0x0
  403aa0:	54fffe6a 	b.ge	403a6c <_nl_expand_alias+0x12c>  // b.tcont
  403aa4:	aa1603f7 	mov	x23, x22
  403aa8:	17fffff3 	b	403a74 <_nl_expand_alias+0x134>
  403aac:	aa0303e0 	mov	x0, x3
  403ab0:	17ffffc7 	b	4039cc <_nl_expand_alias+0x8c>
  403ab4:	90000280 	adrp	x0, 453000 <cpu_list+0x98>
  403ab8:	91032000 	add	x0, x0, #0xc8
  403abc:	f9001660 	str	x0, [x19, #40]
  403ac0:	17ffffb1 	b	403984 <_nl_expand_alias+0x44>
  403ac4:	91008273 	add	x19, x19, #0x20
  403ac8:	52800000 	mov	w0, #0x0                   	// #0
  403acc:	aa1303e1 	mov	x1, x19
  403ad0:	f9400754 	ldr	x20, [x26, #8]
  403ad4:	94012527 	bl	44cf70 <__aarch64_swp4_rel>
  403ad8:	7100041f 	cmp	w0, #0x1
  403adc:	54fffa0d 	b.le	403a1c <_nl_expand_alias+0xdc>
  403ae0:	aa1303e0 	mov	x0, x19
  403ae4:	9400282c 	bl	40db94 <__lll_lock_wake_private>
  403ae8:	aa1403e0 	mov	x0, x20
  403aec:	a94153f3 	ldp	x19, x20, [sp, #16]
  403af0:	a9425bf5 	ldp	x21, x22, [sp, #32]
  403af4:	a94363f7 	ldp	x23, x24, [sp, #48]
  403af8:	a9446bf9 	ldp	x25, x26, [sp, #64]
  403afc:	a8c57bfd 	ldp	x29, x30, [sp], #80
  403b00:	d65f03c0 	ret
  403b04:	aa1403e0 	mov	x0, x20
  403b08:	940027e2 	bl	40da90 <__lll_lock_wait_private>
  403b0c:	17ffff9c 	b	40397c <_nl_expand_alias+0x3c>

0000000000403b10 <_nl_make_l10nflist>:
  403b10:	d102c3ff 	sub	sp, sp, #0xb0
  403b14:	a9027bfd 	stp	x29, x30, [sp, #32]
  403b18:	910083fd 	add	x29, sp, #0x20
  403b1c:	a90353f3 	stp	x19, x20, [sp, #48]
  403b20:	2a0303f4 	mov	w20, w3
  403b24:	a9045bf5 	stp	x21, x22, [sp, #64]
  403b28:	aa0203f5 	mov	x21, x2
  403b2c:	aa0503f6 	mov	x22, x5
  403b30:	a90563f7 	stp	x23, x24, [sp, #80]
  403b34:	aa0403f7 	mov	x23, x4
  403b38:	121e0078 	and	w24, w3, #0x4
  403b3c:	a9066bf9 	stp	x25, x26, [sp, #96]
  403b40:	aa0103f9 	mov	x25, x1
  403b44:	9100085a 	add	x26, x2, #0x2
  403b48:	a9081be0 	stp	x0, x6, [sp, #128]
  403b4c:	aa0403e0 	mov	x0, x4
  403b50:	f9004be7 	str	x7, [sp, #144]
  403b54:	f90057e5 	str	x5, [sp, #168]
  403b58:	97fff1de 	bl	4002d0 <.plt+0x60>
  403b5c:	aa0003f3 	mov	x19, x0
  403b60:	d2800000 	mov	x0, #0x0                   	// #0
  403b64:	36100094 	tbz	w20, #2, 403b74 <_nl_make_l10nflist+0x64>
  403b68:	aa1603e0 	mov	x0, x22
  403b6c:	97fff1d9 	bl	4002d0 <.plt+0x60>
  403b70:	91000400 	add	x0, x0, #0x1
  403b74:	8b000273 	add	x19, x19, x0
  403b78:	121f0280 	and	w0, w20, #0x2
  403b7c:	b9009be0 	str	w0, [sp, #152]
  403b80:	8b1a0273 	add	x19, x19, x26
  403b84:	d2800016 	mov	x22, #0x0                   	// #0
  403b88:	36080094 	tbz	w20, #1, 403b98 <_nl_make_l10nflist+0x88>
  403b8c:	f94047e0 	ldr	x0, [sp, #136]
  403b90:	97fff1d0 	bl	4002d0 <.plt+0x60>
  403b94:	91000416 	add	x22, x0, #0x1
  403b98:	12000281 	and	w1, w20, #0x1
  403b9c:	b900a3e1 	str	w1, [sp, #160]
  403ba0:	d2800000 	mov	x0, #0x0                   	// #0
  403ba4:	36000094 	tbz	w20, #0, 403bb4 <_nl_make_l10nflist+0xa4>
  403ba8:	f9404be0 	ldr	x0, [sp, #144]
  403bac:	97fff1c9 	bl	4002d0 <.plt+0x60>
  403bb0:	91000400 	add	x0, x0, #0x1
  403bb4:	8b0002c0 	add	x0, x22, x0
  403bb8:	d2800016 	mov	x22, #0x0                   	// #0
  403bbc:	8b130013 	add	x19, x0, x19
  403bc0:	121d0280 	and	w0, w20, #0x8
  403bc4:	b900a7e0 	str	w0, [sp, #164]
  403bc8:	36180094 	tbz	w20, #3, 403bd8 <_nl_make_l10nflist+0xc8>
  403bcc:	f9405be0 	ldr	x0, [sp, #176]
  403bd0:	97fff1c0 	bl	4002d0 <.plt+0x60>
  403bd4:	91000416 	add	x22, x0, #0x1
  403bd8:	f9405fe0 	ldr	x0, [sp, #184]
  403bdc:	97fff1bd 	bl	4002d0 <.plt+0x60>
  403be0:	aa0003fa 	mov	x26, x0
  403be4:	8b160000 	add	x0, x0, x22
  403be8:	8b130000 	add	x0, x0, x19
  403bec:	94003a25 	bl	412480 <__libc_malloc>
  403bf0:	aa0003f3 	mov	x19, x0
  403bf4:	b4001e60 	cbz	x0, 403fc0 <_nl_make_l10nflist+0x4b0>
  403bf8:	aa1503e2 	mov	x2, x21
  403bfc:	aa1903e1 	mov	x1, x25
  403c00:	a90773fb 	stp	x27, x28, [sp, #112]
  403c04:	97fff19f 	bl	400280 <.plt+0x10>
  403c08:	b4000235 	cbz	x21, 403c4c <_nl_make_l10nflist+0x13c>
  403c0c:	aa1503fc 	mov	x28, x21
  403c10:	aa1303fb 	mov	x27, x19
  403c14:	aa1b03e0 	mov	x0, x27
  403c18:	97fff1ae 	bl	4002d0 <.plt+0x60>
  403c1c:	8b00037b 	add	x27, x27, x0
  403c20:	cb000380 	sub	x0, x28, x0
  403c24:	f100041c 	subs	x28, x0, #0x1
  403c28:	52800756 	mov	w22, #0x3a                  	// #58
  403c2c:	54000100 	b.eq	403c4c <_nl_make_l10nflist+0x13c>  // b.none
  403c30:	38001776 	strb	w22, [x27], #1
  403c34:	aa1b03e0 	mov	x0, x27
  403c38:	97fff1a6 	bl	4002d0 <.plt+0x60>
  403c3c:	8b00037b 	add	x27, x27, x0
  403c40:	cb000380 	sub	x0, x28, x0
  403c44:	f100041c 	subs	x28, x0, #0x1
  403c48:	54ffff41 	b.ne	403c30 <_nl_make_l10nflist+0x120>  // b.any
  403c4c:	8b150260 	add	x0, x19, x21
  403c50:	528005e2 	mov	w2, #0x2f                  	// #47
  403c54:	aa1703e1 	mov	x1, x23
  403c58:	381ff002 	sturb	w2, [x0, #-1]
  403c5c:	940044a9 	bl	414f00 <__stpcpy>
  403c60:	350017f8 	cbnz	w24, 403f5c <_nl_make_l10nflist+0x44c>
  403c64:	b9409be1 	ldr	w1, [sp, #152]
  403c68:	35001701 	cbnz	w1, 403f48 <_nl_make_l10nflist+0x438>
  403c6c:	b940a3e1 	ldr	w1, [sp, #160]
  403c70:	35001561 	cbnz	w1, 403f1c <_nl_make_l10nflist+0x40c>
  403c74:	b940a7e1 	ldr	w1, [sp, #164]
  403c78:	350015e1 	cbnz	w1, 403f34 <_nl_make_l10nflist+0x424>
  403c7c:	f9405fe1 	ldr	x1, [sp, #184]
  403c80:	528005e3 	mov	w3, #0x2f                  	// #47
  403c84:	38001403 	strb	w3, [x0], #1
  403c88:	91000742 	add	x2, x26, #0x1
  403c8c:	d2800016 	mov	x22, #0x0                   	// #0
  403c90:	97fff17c 	bl	400280 <.plt+0x10>
  403c94:	f94043e0 	ldr	x0, [sp, #128]
  403c98:	f940001a 	ldr	x26, [x0]
  403c9c:	f9004ffa 	str	x26, [sp, #152]
  403ca0:	b400019a 	cbz	x26, 403cd0 <_nl_make_l10nflist+0x1c0>
  403ca4:	d503201f 	nop
  403ca8:	f9400340 	ldr	x0, [x26]
  403cac:	aa1303e1 	mov	x1, x19
  403cb0:	b40000c0 	cbz	x0, 403cc8 <_nl_make_l10nflist+0x1b8>
  403cb4:	94004053 	bl	413e00 <strcmp>
  403cb8:	7100001f 	cmp	w0, #0x0
  403cbc:	340011a0 	cbz	w0, 403ef0 <_nl_make_l10nflist+0x3e0>
  403cc0:	5400008b 	b.lt	403cd0 <_nl_make_l10nflist+0x1c0>  // b.tstop
  403cc4:	aa1a03f6 	mov	x22, x26
  403cc8:	f9400f5a 	ldr	x26, [x26, #24]
  403ccc:	b5fffefa 	cbnz	x26, 403ca8 <_nl_make_l10nflist+0x198>
  403cd0:	b940c3e0 	ldr	w0, [sp, #192]
  403cd4:	340010c0 	cbz	w0, 403eec <_nl_make_l10nflist+0x3dc>
  403cd8:	12855540 	mov	w0, #0xffffd555            	// #-10923
  403cdc:	528aaaa1 	mov	w1, #0x5555                	// #21845
  403ce0:	0a940400 	and	w0, w0, w20, asr #1
  403ce4:	0a010281 	and	w1, w20, w1
  403ce8:	0b010000 	add	w0, w0, w1
  403cec:	12819982 	mov	w2, #0xfffff333            	// #-3277
  403cf0:	52866661 	mov	w1, #0x3333                	// #13107
  403cf4:	0a010001 	and	w1, w0, w1
  403cf8:	0a800840 	and	w0, w2, w0, asr #2
  403cfc:	5281e1e5 	mov	w5, #0xf0f                 	// #3855
  403d00:	0b010000 	add	w0, w0, w1
  403d04:	52800024 	mov	w4, #0x1                   	// #1
  403d08:	aa1503fb 	mov	x27, x21
  403d0c:	aa1903fc 	mov	x28, x25
  403d10:	0b801000 	add	w0, w0, w0, asr #4
  403d14:	d280001a 	mov	x26, #0x0                   	// #0
  403d18:	0a050000 	and	w0, w0, w5
  403d1c:	0b402000 	add	w0, w0, w0, lsr #8
  403d20:	1ac02080 	lsl	w0, w4, w0
  403d24:	93407c18 	sxtw	x24, w0
  403d28:	b4001335 	cbz	x21, 403f8c <_nl_make_l10nflist+0x47c>
  403d2c:	d503201f 	nop
  403d30:	aa1c03e0 	mov	x0, x28
  403d34:	97fff167 	bl	4002d0 <.plt+0x60>
  403d38:	cb000361 	sub	x1, x27, x0
  403d3c:	91000400 	add	x0, x0, #0x1
  403d40:	9100075a 	add	x26, x26, #0x1
  403d44:	f100043b 	subs	x27, x1, #0x1
  403d48:	8b00039c 	add	x28, x28, x0
  403d4c:	54ffff21 	b.ne	403d30 <_nl_make_l10nflist+0x220>  // b.any
  403d50:	9b187f40 	mul	x0, x26, x24
  403d54:	91001400 	add	x0, x0, #0x5
  403d58:	d37df000 	lsl	x0, x0, #3
  403d5c:	940039c9 	bl	412480 <__libc_malloc>
  403d60:	aa0003fa 	mov	x26, x0
  403d64:	b4001240 	cbz	x0, 403fac <_nl_make_l10nflist+0x49c>
  403d68:	aa1503f8 	mov	x24, x21
  403d6c:	aa1903fc 	mov	x28, x25
  403d70:	f9000013 	str	x19, [x0]
  403d74:	d503201f 	nop
  403d78:	aa1c03e0 	mov	x0, x28
  403d7c:	97fff155 	bl	4002d0 <.plt+0x60>
  403d80:	cb000302 	sub	x2, x24, x0
  403d84:	91000400 	add	x0, x0, #0x1
  403d88:	9100077b 	add	x27, x27, #0x1
  403d8c:	f1000458 	subs	x24, x2, #0x1
  403d90:	8b00039c 	add	x28, x28, x0
  403d94:	54ffff21 	b.ne	403d78 <_nl_make_l10nflist+0x268>  // b.any
  403d98:	52800020 	mov	w0, #0x1                   	// #1
  403d9c:	f100077f 	cmp	x27, #0x1
  403da0:	540005c0 	b.eq	403e58 <_nl_make_l10nflist+0x348>  // b.none
  403da4:	b9000b40 	str	w0, [x26, #8]
  403da8:	f9000b5f 	str	xzr, [x26, #16]
  403dac:	b4000e36 	cbz	x22, 403f70 <_nl_make_l10nflist+0x460>
  403db0:	f9400ec0 	ldr	x0, [x22, #24]
  403db4:	f9000f40 	str	x0, [x26, #24]
  403db8:	f9000eda 	str	x26, [x22, #24]
  403dbc:	b4000e55 	cbz	x21, 403f84 <_nl_make_l10nflist+0x474>
  403dc0:	aa1503f3 	mov	x19, x21
  403dc4:	aa1903f6 	mov	x22, x25
  403dc8:	d2800018 	mov	x24, #0x0                   	// #0
  403dcc:	d503201f 	nop
  403dd0:	aa1603e0 	mov	x0, x22
  403dd4:	97fff13f 	bl	4002d0 <.plt+0x60>
  403dd8:	cb000261 	sub	x1, x19, x0
  403ddc:	91000400 	add	x0, x0, #0x1
  403de0:	91000718 	add	x24, x24, #0x1
  403de4:	f1000433 	subs	x19, x1, #0x1
  403de8:	8b0002d6 	add	x22, x22, x0
  403dec:	54ffff21 	b.ne	403dd0 <_nl_make_l10nflist+0x2c0>  // b.any
  403df0:	f100071f 	cmp	x24, #0x1
  403df4:	1a9f17f8 	cset	w24, eq  // eq = none
  403df8:	4b180298 	sub	w24, w20, w24
  403dfc:	2a3403f6 	mvn	w22, w20
  403e00:	d2800014 	mov	x20, #0x0                   	// #0
  403e04:	37f80158 	tbnz	w24, #31, 403e2c <_nl_make_l10nflist+0x31c>
  403e08:	8b150333 	add	x19, x25, x21
  403e0c:	91006340 	add	x0, x26, #0x18
  403e10:	5280003c 	mov	w28, #0x1                   	// #1
  403e14:	f9004fe0 	str	x0, [sp, #152]
  403e18:	6a16031f 	tst	w24, w22
  403e1c:	540002c0 	b.eq	403e74 <_nl_make_l10nflist+0x364>  // b.none
  403e20:	51000718 	sub	w24, w24, #0x1
  403e24:	3100071f 	cmn	w24, #0x1
  403e28:	54ffff81 	b.ne	403e18 <_nl_make_l10nflist+0x308>  // b.any
  403e2c:	a94773fb 	ldp	x27, x28, [sp, #112]
  403e30:	91001294 	add	x20, x20, #0x4
  403e34:	f8347b5f 	str	xzr, [x26, x20, lsl #3]
  403e38:	aa1a03e0 	mov	x0, x26
  403e3c:	a9427bfd 	ldp	x29, x30, [sp, #32]
  403e40:	a94353f3 	ldp	x19, x20, [sp, #48]
  403e44:	a9445bf5 	ldp	x21, x22, [sp, #64]
  403e48:	a94563f7 	ldp	x23, x24, [sp, #80]
  403e4c:	a9466bf9 	ldp	x25, x26, [sp, #96]
  403e50:	9102c3ff 	add	sp, sp, #0xb0
  403e54:	d65f03c0 	ret
  403e58:	12000680 	and	w0, w20, #0x3
  403e5c:	f9000b5f 	str	xzr, [x26, #16]
  403e60:	71000c1f 	cmp	w0, #0x3
  403e64:	1a9f17e0 	cset	w0, eq  // eq = none
  403e68:	b9000b40 	str	w0, [x26, #8]
  403e6c:	b5fffa36 	cbnz	x22, 403db0 <_nl_make_l10nflist+0x2a0>
  403e70:	14000040 	b	403f70 <_nl_make_l10nflist+0x460>
  403e74:	d280001b 	mov	x27, #0x0                   	// #0
  403e78:	b400035b 	cbz	x27, 403ee0 <_nl_make_l10nflist+0x3d0>
  403e7c:	aa1b03e0 	mov	x0, x27
  403e80:	eb13037f 	cmp	x27, x19
  403e84:	54fffce2 	b.cs	403e20 <_nl_make_l10nflist+0x310>  // b.hs, b.nlast
  403e88:	97fff112 	bl	4002d0 <.plt+0x60>
  403e8c:	91000400 	add	x0, x0, #0x1
  403e90:	8b00037b 	add	x27, x27, x0
  403e94:	eb13037f 	cmp	x27, x19
  403e98:	54fffc42 	b.cs	403e20 <_nl_make_l10nflist+0x310>  // b.hs, b.nlast
  403e9c:	aa1b03e0 	mov	x0, x27
  403ea0:	97fff10c 	bl	4002d0 <.plt+0x60>
  403ea4:	a9489fe6 	ldp	x6, x7, [sp, #136]
  403ea8:	91000402 	add	x2, x0, #0x1
  403eac:	a94a87e5 	ldp	x5, x1, [sp, #168]
  403eb0:	b90013fc 	str	w28, [sp, #16]
  403eb4:	f9405fe0 	ldr	x0, [sp, #184]
  403eb8:	a90003e1 	stp	x1, x0, [sp]
  403ebc:	aa1703e4 	mov	x4, x23
  403ec0:	f94043e0 	ldr	x0, [sp, #128]
  403ec4:	aa1b03e1 	mov	x1, x27
  403ec8:	2a1803e3 	mov	w3, w24
  403ecc:	91000694 	add	x20, x20, #0x1
  403ed0:	97ffff10 	bl	403b10 <_nl_make_l10nflist>
  403ed4:	f9404fe1 	ldr	x1, [sp, #152]
  403ed8:	f8347820 	str	x0, [x1, x20, lsl #3]
  403edc:	b5fffd1b 	cbnz	x27, 403e7c <_nl_make_l10nflist+0x36c>
  403ee0:	aa1903fb 	mov	x27, x25
  403ee4:	b4fff9f5 	cbz	x21, 403e20 <_nl_make_l10nflist+0x310>
  403ee8:	17ffffed 	b	403e9c <_nl_make_l10nflist+0x38c>
  403eec:	d280001a 	mov	x26, #0x0                   	// #0
  403ef0:	aa1303e0 	mov	x0, x19
  403ef4:	94003ab3 	bl	4129c0 <__free>
  403ef8:	aa1a03e0 	mov	x0, x26
  403efc:	a9427bfd 	ldp	x29, x30, [sp, #32]
  403f00:	a94353f3 	ldp	x19, x20, [sp, #48]
  403f04:	a9445bf5 	ldp	x21, x22, [sp, #64]
  403f08:	a94563f7 	ldp	x23, x24, [sp, #80]
  403f0c:	a9466bf9 	ldp	x25, x26, [sp, #96]
  403f10:	a94773fb 	ldp	x27, x28, [sp, #112]
  403f14:	9102c3ff 	add	sp, sp, #0xb0
  403f18:	d65f03c0 	ret
  403f1c:	f9404be1 	ldr	x1, [sp, #144]
  403f20:	528005c2 	mov	w2, #0x2e                  	// #46
  403f24:	38001402 	strb	w2, [x0], #1
  403f28:	940043f6 	bl	414f00 <__stpcpy>
  403f2c:	b940a7e1 	ldr	w1, [sp, #164]
  403f30:	34ffea61 	cbz	w1, 403c7c <_nl_make_l10nflist+0x16c>
  403f34:	f9405be1 	ldr	x1, [sp, #176]
  403f38:	52800802 	mov	w2, #0x40                  	// #64
  403f3c:	38001402 	strb	w2, [x0], #1
  403f40:	940043f0 	bl	414f00 <__stpcpy>
  403f44:	17ffff4e 	b	403c7c <_nl_make_l10nflist+0x16c>
  403f48:	f94047e1 	ldr	x1, [sp, #136]
  403f4c:	528005c2 	mov	w2, #0x2e                  	// #46
  403f50:	38001402 	strb	w2, [x0], #1
  403f54:	940043eb 	bl	414f00 <__stpcpy>
  403f58:	17ffff45 	b	403c6c <_nl_make_l10nflist+0x15c>
  403f5c:	f94057e1 	ldr	x1, [sp, #168]
  403f60:	52800be2 	mov	w2, #0x5f                  	// #95
  403f64:	38001402 	strb	w2, [x0], #1
  403f68:	940043e6 	bl	414f00 <__stpcpy>
  403f6c:	17ffff3e 	b	403c64 <_nl_make_l10nflist+0x154>
  403f70:	f94043e0 	ldr	x0, [sp, #128]
  403f74:	f900001a 	str	x26, [x0]
  403f78:	f9404fe0 	ldr	x0, [sp, #152]
  403f7c:	f9000f40 	str	x0, [x26, #24]
  403f80:	17ffff8f 	b	403dbc <_nl_make_l10nflist+0x2ac>
  403f84:	2a1403f8 	mov	w24, w20
  403f88:	17ffff9d 	b	403dfc <_nl_make_l10nflist+0x2ec>
  403f8c:	d2800500 	mov	x0, #0x28                  	// #40
  403f90:	9400393c 	bl	412480 <__libc_malloc>
  403f94:	52800024 	mov	w4, #0x1                   	// #1
  403f98:	aa0003fa 	mov	x26, x0
  403f9c:	b4000080 	cbz	x0, 403fac <_nl_make_l10nflist+0x49c>
  403fa0:	2a0403e0 	mov	w0, w4
  403fa4:	f9000353 	str	x19, [x26]
  403fa8:	17ffff7f 	b	403da4 <_nl_make_l10nflist+0x294>
  403fac:	aa1303e0 	mov	x0, x19
  403fb0:	d280001a 	mov	x26, #0x0                   	// #0
  403fb4:	94003a83 	bl	4129c0 <__free>
  403fb8:	a94773fb 	ldp	x27, x28, [sp, #112]
  403fbc:	17ffff9f 	b	403e38 <_nl_make_l10nflist+0x328>
  403fc0:	d280001a 	mov	x26, #0x0                   	// #0
  403fc4:	17ffff9d 	b	403e38 <_nl_make_l10nflist+0x328>
  403fc8:	d503201f 	nop
  403fcc:	d503201f 	nop

0000000000403fd0 <_nl_normalize_codeset>:
  403fd0:	a9bd7bfd 	stp	x29, x30, [sp, #-48]!
  403fd4:	910003fd 	mov	x29, sp
  403fd8:	b4000801 	cbz	x1, 4040d8 <_nl_normalize_codeset+0x108>
  403fdc:	a9025bf5 	stp	x21, x22, [sp, #32]
  403fe0:	d0000316 	adrp	x22, 465000 <translit_from_idx+0x17e0>
  403fe4:	9108c2d6 	add	x22, x22, #0x230
  403fe8:	a90153f3 	stp	x19, x20, [sp, #16]
  403fec:	aa0103f4 	mov	x20, x1
  403ff0:	aa0003f5 	mov	x21, x0
  403ff4:	f94036d3 	ldr	x19, [x22, #104]
  403ff8:	aa0003e3 	mov	x3, x0
  403ffc:	8b000025 	add	x5, x1, x0
  404000:	52800024 	mov	w4, #0x1                   	// #1
  404004:	d2800000 	mov	x0, #0x0                   	// #0
  404008:	39400062 	ldrb	w2, [x3]
  40400c:	91000463 	add	x3, x3, #0x1
  404010:	5100c041 	sub	w1, w2, #0x30
  404014:	d37f1c42 	ubfiz	x2, x2, #1, #8
  404018:	78626a62 	ldrh	w2, [x19, x2]
  40401c:	36180082 	tbz	w2, #3, 40402c <_nl_normalize_codeset+0x5c>
  404020:	7100283f 	cmp	w1, #0xa
  404024:	91000400 	add	x0, x0, #0x1
  404028:	1a9f3084 	csel	w4, w4, wzr, cc  // cc = lo, ul, last
  40402c:	eb0300bf 	cmp	x5, x3
  404030:	54fffec1 	b.ne	404008 <_nl_normalize_codeset+0x38>  // b.any
  404034:	35000404 	cbnz	w4, 4040b4 <_nl_normalize_codeset+0xe4>
  404038:	91000400 	add	x0, x0, #0x1
  40403c:	94003911 	bl	412480 <__libc_malloc>
  404040:	aa0003e4 	mov	x4, x0
  404044:	b4000560 	cbz	x0, 4040f0 <_nl_normalize_codeset+0x120>
  404048:	d2800003 	mov	x3, #0x0                   	// #0
  40404c:	f9403ac8 	ldr	x8, [x22, #112]
  404050:	14000007 	b	40406c <_nl_normalize_codeset+0x9c>
  404054:	b8677901 	ldr	w1, [x8, x7, lsl #2]
  404058:	380014a1 	strb	w1, [x5], #1
  40405c:	aa0503e4 	mov	x4, x5
  404060:	91000463 	add	x3, x3, #0x1
  404064:	eb03029f 	cmp	x20, x3
  404068:	540001c9 	b.ls	4040a0 <_nl_normalize_codeset+0xd0>  // b.plast
  40406c:	38636aa7 	ldrb	w7, [x21, x3]
  404070:	aa0403e5 	mov	x5, x4
  404074:	5100c0e1 	sub	w1, w7, #0x30
  404078:	d37f1ce6 	ubfiz	x6, x7, #1, #8
  40407c:	78666a66 	ldrh	w6, [x19, x6]
  404080:	3757fea6 	tbnz	w6, #10, 404054 <_nl_normalize_codeset+0x84>
  404084:	7100243f 	cmp	w1, #0x9
  404088:	54fffec8 	b.hi	404060 <_nl_normalize_codeset+0x90>  // b.pmore
  40408c:	380014a7 	strb	w7, [x5], #1
  404090:	91000463 	add	x3, x3, #0x1
  404094:	aa0503e4 	mov	x4, x5
  404098:	eb03029f 	cmp	x20, x3
  40409c:	54fffe88 	b.hi	40406c <_nl_normalize_codeset+0x9c>  // b.pmore
  4040a0:	a94153f3 	ldp	x19, x20, [sp, #16]
  4040a4:	a9425bf5 	ldp	x21, x22, [sp, #32]
  4040a8:	3900009f 	strb	wzr, [x4]
  4040ac:	a8c37bfd 	ldp	x29, x30, [sp], #48
  4040b0:	d65f03c0 	ret
  4040b4:	91001000 	add	x0, x0, #0x4
  4040b8:	940038f2 	bl	412480 <__libc_malloc>
  4040bc:	b40001a0 	cbz	x0, 4040f0 <_nl_normalize_codeset+0x120>
  4040c0:	aa0003e4 	mov	x4, x0
  4040c4:	528e6d21 	mov	w1, #0x7369                	// #29545
  4040c8:	72a00de1 	movk	w1, #0x6f, lsl #16
  4040cc:	f94036d3 	ldr	x19, [x22, #104]
  4040d0:	b8003481 	str	w1, [x4], #3
  4040d4:	17ffffdd 	b	404048 <_nl_normalize_codeset+0x78>
  4040d8:	d2800080 	mov	x0, #0x4                   	// #4
  4040dc:	940038e9 	bl	412480 <__libc_malloc>
  4040e0:	b5000100 	cbnz	x0, 404100 <_nl_normalize_codeset+0x130>
  4040e4:	d2800000 	mov	x0, #0x0                   	// #0
  4040e8:	a8c37bfd 	ldp	x29, x30, [sp], #48
  4040ec:	d65f03c0 	ret
  4040f0:	d2800000 	mov	x0, #0x0                   	// #0
  4040f4:	a94153f3 	ldp	x19, x20, [sp, #16]
  4040f8:	a9425bf5 	ldp	x21, x22, [sp, #32]
  4040fc:	17fffffb 	b	4040e8 <_nl_normalize_codeset+0x118>
  404100:	aa0003e4 	mov	x4, x0
  404104:	528e6d21 	mov	w1, #0x7369                	// #29545
  404108:	72a00de1 	movk	w1, #0x6f, lsl #16
  40410c:	b8003481 	str	w1, [x4], #3
  404110:	17ffffe6 	b	4040a8 <_nl_normalize_codeset+0xd8>
  404114:	d503201f 	nop
  404118:	d503201f 	nop
  40411c:	d503201f 	nop

0000000000404120 <_nl_explode_name>:
  404120:	a9ba7bfd 	stp	x29, x30, [sp, #-96]!
  404124:	aa0003e7 	mov	x7, x0
  404128:	52800808 	mov	w8, #0x40                  	// #64
  40412c:	910003fd 	mov	x29, sp
  404130:	a90153f3 	stp	x19, x20, [sp, #16]
  404134:	a9025bf5 	stp	x21, x22, [sp, #32]
  404138:	aa0403f5 	mov	x21, x4
  40413c:	f900005f 	str	xzr, [x2]
  404140:	f900007f 	str	xzr, [x3]
  404144:	f900009f 	str	xzr, [x4]
  404148:	f90000bf 	str	xzr, [x5]
  40414c:	f9000020 	str	x0, [x1]
  404150:	39400006 	ldrb	w6, [x0]
  404154:	71017cdf 	cmp	w6, #0x5f
  404158:	7a4018c4 	ccmp	w6, #0x0, #0x4, ne  // ne = any
  40415c:	540000e1 	b.ne	404178 <_nl_explode_name+0x58>  // b.any
  404160:	1400002a 	b	404208 <_nl_explode_name+0xe8>
  404164:	394004e6 	ldrb	w6, [x7, #1]
  404168:	71017cdf 	cmp	w6, #0x5f
  40416c:	7a4018c4 	ccmp	w6, #0x0, #0x4, ne  // ne = any
  404170:	54000500 	b.eq	404210 <_nl_explode_name+0xf0>  // b.none
  404174:	aa0103e7 	mov	x7, x1
  404178:	7100b8df 	cmp	w6, #0x2e
  40417c:	910004e1 	add	x1, x7, #0x1
  404180:	7a4810c4 	ccmp	w6, w8, #0x4, ne  // ne = any
  404184:	54ffff01 	b.ne	404164 <_nl_explode_name+0x44>  // b.any
  404188:	eb07001f 	cmp	x0, x7
  40418c:	540003e0 	b.eq	404208 <_nl_explode_name+0xe8>  // b.none
  404190:	394000e6 	ldrb	w6, [x7]
  404194:	52800013 	mov	w19, #0x0                   	// #0
  404198:	7100b8df 	cmp	w6, #0x2e
  40419c:	54000660 	b.eq	404268 <_nl_explode_name+0x148>  // b.none
  4041a0:	710100df 	cmp	w6, #0x40
  4041a4:	54000101 	b.ne	4041c4 <_nl_explode_name+0xa4>  // b.any
  4041a8:	aa0703e0 	mov	x0, x7
  4041ac:	321d0261 	orr	w1, w19, #0x8
  4041b0:	3800141f 	strb	wzr, [x0], #1
  4041b4:	f9000040 	str	x0, [x2]
  4041b8:	394004e0 	ldrb	w0, [x7, #1]
  4041bc:	7100001f 	cmp	w0, #0x0
  4041c0:	1a931033 	csel	w19, w1, w19, ne  // ne = any
  4041c4:	f9400060 	ldr	x0, [x3]
  4041c8:	b40000a0 	cbz	x0, 4041dc <_nl_explode_name+0xbc>
  4041cc:	39400001 	ldrb	w1, [x0]
  4041d0:	121d7a60 	and	w0, w19, #0xfffffffb
  4041d4:	7100003f 	cmp	w1, #0x0
  4041d8:	1a930013 	csel	w19, w0, w19, eq  // eq = none
  4041dc:	f94002a0 	ldr	x0, [x21]
  4041e0:	b40000a0 	cbz	x0, 4041f4 <_nl_explode_name+0xd4>
  4041e4:	39400001 	ldrb	w1, [x0]
  4041e8:	121e7a60 	and	w0, w19, #0xfffffffd
  4041ec:	7100003f 	cmp	w1, #0x0
  4041f0:	1a930013 	csel	w19, w0, w19, eq  // eq = none
  4041f4:	2a1303e0 	mov	w0, w19
  4041f8:	a94153f3 	ldp	x19, x20, [sp, #16]
  4041fc:	a9425bf5 	ldp	x21, x22, [sp, #32]
  404200:	a8c67bfd 	ldp	x29, x30, [sp], #96
  404204:	d65f03c0 	ret
  404208:	52800013 	mov	w19, #0x0                   	// #0
  40420c:	17ffffee 	b	4041c4 <_nl_explode_name+0xa4>
  404210:	eb01001f 	cmp	x0, x1
  404214:	54ffffa0 	b.eq	404208 <_nl_explode_name+0xe8>  // b.none
  404218:	71017cdf 	cmp	w6, #0x5f
  40421c:	54000861 	b.ne	404328 <_nl_explode_name+0x208>  // b.any
  404220:	3900003f 	strb	wzr, [x1]
  404224:	910008e7 	add	x7, x7, #0x2
  404228:	f9000067 	str	x7, [x3]
  40422c:	39400426 	ldrb	w6, [x1, #1]
  404230:	121978c0 	and	w0, w6, #0xffffffbf
  404234:	7100b8df 	cmp	w6, #0x2e
  404238:	12001c00 	and	w0, w0, #0xff
  40423c:	7a401804 	ccmp	w0, #0x0, #0x4, ne  // ne = any
  404240:	540000e0 	b.eq	40425c <_nl_explode_name+0x13c>  // b.none
  404244:	d503201f 	nop
  404248:	38401ce6 	ldrb	w6, [x7, #1]!
  40424c:	7100b8df 	cmp	w6, #0x2e
  404250:	121978c0 	and	w0, w6, #0xffffffbf
  404254:	7a401804 	ccmp	w0, #0x0, #0x4, ne  // ne = any
  404258:	54ffff81 	b.ne	404248 <_nl_explode_name+0x128>  // b.any
  40425c:	52800093 	mov	w19, #0x4                   	// #4
  404260:	7100b8df 	cmp	w6, #0x2e
  404264:	54fff9e1 	b.ne	4041a0 <_nl_explode_name+0x80>  // b.any
  404268:	aa0703e0 	mov	x0, x7
  40426c:	a9036bf9 	stp	x25, x26, [sp, #48]
  404270:	528017e1 	mov	w1, #0xbf                  	// #191
  404274:	321f0279 	orr	w25, w19, #0x2
  404278:	3800141f 	strb	wzr, [x0], #1
  40427c:	f90002a0 	str	x0, [x21]
  404280:	394004e6 	ldrb	w6, [x7, #1]
  404284:	6a0100df 	tst	w6, w1
  404288:	54000360 	b.eq	4042f4 <_nl_explode_name+0x1d4>  // b.none
  40428c:	aa0003f4 	mov	x20, x0
  404290:	aa1403f6 	mov	x22, x20
  404294:	38401e84 	ldrb	w4, [x20, #1]!
  404298:	528017e1 	mov	w1, #0xbf                  	// #191
  40429c:	6a01009f 	tst	w4, w1
  4042a0:	54ffff81 	b.ne	404290 <_nl_explode_name+0x170>  // b.any
  4042a4:	f90027e5 	str	x5, [sp, #72]
  4042a8:	eb14001f 	cmp	x0, x20
  4042ac:	54000240 	b.eq	4042f4 <_nl_explode_name+0x1d4>  // b.none
  4042b0:	cb0702c1 	sub	x1, x22, x7
  4042b4:	a9050fe2 	stp	x2, x3, [sp, #80]
  4042b8:	97ffff46 	bl	403fd0 <_nl_normalize_codeset>
  4042bc:	f94027e5 	ldr	x5, [sp, #72]
  4042c0:	aa0003fa 	mov	x26, x0
  4042c4:	f90000a0 	str	x0, [x5]
  4042c8:	b4000360 	cbz	x0, 404334 <_nl_explode_name+0x214>
  4042cc:	aa0003e1 	mov	x1, x0
  4042d0:	f94002a0 	ldr	x0, [x21]
  4042d4:	94003ecb 	bl	413e00 <strcmp>
  4042d8:	a9450fe2 	ldp	x2, x3, [sp, #80]
  4042dc:	34000140 	cbz	w0, 404304 <_nl_explode_name+0x1e4>
  4042e0:	394006c6 	ldrb	w6, [x22, #1]
  4042e4:	32000673 	orr	w19, w19, #0x3
  4042e8:	aa1403e7 	mov	x7, x20
  4042ec:	a9436bf9 	ldp	x25, x26, [sp, #48]
  4042f0:	17ffffac 	b	4041a0 <_nl_explode_name+0x80>
  4042f4:	2a1903f3 	mov	w19, w25
  4042f8:	aa0003e7 	mov	x7, x0
  4042fc:	a9436bf9 	ldp	x25, x26, [sp, #48]
  404300:	17ffffa8 	b	4041a0 <_nl_explode_name+0x80>
  404304:	aa1a03e0 	mov	x0, x26
  404308:	a9048fe2 	stp	x2, x3, [sp, #72]
  40430c:	940039ad 	bl	4129c0 <__free>
  404310:	2a1903f3 	mov	w19, w25
  404314:	394006c6 	ldrb	w6, [x22, #1]
  404318:	aa1403e7 	mov	x7, x20
  40431c:	a9436bf9 	ldp	x25, x26, [sp, #48]
  404320:	a9448fe2 	ldp	x2, x3, [sp, #72]
  404324:	17ffff9f 	b	4041a0 <_nl_explode_name+0x80>
  404328:	aa0103e7 	mov	x7, x1
  40432c:	52800013 	mov	w19, #0x0                   	// #0
  404330:	17ffff9a 	b	404198 <_nl_explode_name+0x78>
  404334:	12800013 	mov	w19, #0xffffffff            	// #-1
  404338:	a9436bf9 	ldp	x25, x26, [sp, #48]
  40433c:	17ffffae 	b	4041f4 <_nl_explode_name+0xd4>

0000000000404340 <__gettext_free_exp>:
  404340:	b4000340 	cbz	x0, 4043a8 <__gettext_free_exp+0x68>
  404344:	a9be7bfd 	stp	x29, x30, [sp, #-32]!
  404348:	910003fd 	mov	x29, sp
  40434c:	f9000bf3 	str	x19, [sp, #16]
  404350:	aa0003f3 	mov	x19, x0
  404354:	b9400000 	ldr	w0, [x0]
  404358:	7100081f 	cmp	w0, #0x2
  40435c:	54000160 	b.eq	404388 <__gettext_free_exp+0x48>  // b.none
  404360:	71000c1f 	cmp	w0, #0x3
  404364:	540000e0 	b.eq	404380 <__gettext_free_exp+0x40>  // b.none
  404368:	7100041f 	cmp	w0, #0x1
  40436c:	54000120 	b.eq	404390 <__gettext_free_exp+0x50>  // b.none
  404370:	aa1303e0 	mov	x0, x19
  404374:	f9400bf3 	ldr	x19, [sp, #16]
  404378:	a8c27bfd 	ldp	x29, x30, [sp], #32
  40437c:	14003991 	b	4129c0 <__free>
  404380:	f9400e60 	ldr	x0, [x19, #24]
  404384:	97ffffef 	bl	404340 <__gettext_free_exp>
  404388:	f9400a60 	ldr	x0, [x19, #16]
  40438c:	97ffffed 	bl	404340 <__gettext_free_exp>
  404390:	f9400660 	ldr	x0, [x19, #8]
  404394:	97ffffeb 	bl	404340 <__gettext_free_exp>
  404398:	aa1303e0 	mov	x0, x19
  40439c:	f9400bf3 	ldr	x19, [sp, #16]
  4043a0:	a8c27bfd 	ldp	x29, x30, [sp], #32
  4043a4:	14003987 	b	4129c0 <__free>
  4043a8:	d65f03c0 	ret
  4043ac:	d503201f 	nop

00000000004043b0 <__gettextparse>:
  4043b0:	d12183ff 	sub	sp, sp, #0x860
  4043b4:	f0000265 	adrp	x5, 453000 <cpu_list+0x98>
  4043b8:	f0000266 	adrp	x6, 453000 <cpu_list+0x98>
  4043bc:	a9007bfd 	stp	x29, x30, [sp]
  4043c0:	910003fd 	mov	x29, sp
  4043c4:	a90153f3 	stp	x19, x20, [sp, #16]
  4043c8:	910883f4 	add	x20, sp, #0x220
  4043cc:	910243f3 	add	x19, sp, #0x90
  4043d0:	a9025bf5 	stp	x21, x22, [sp, #32]
  4043d4:	911040b6 	add	x22, x5, #0x410
  4043d8:	d2801915 	mov	x21, #0xc8                  	// #200
  4043dc:	a90363f7 	stp	x23, x24, [sp, #48]
  4043e0:	aa1403f7 	mov	x23, x20
  4043e4:	a9046bf9 	stp	x25, x26, [sp, #64]
  4043e8:	f000027a 	adrp	x26, 453000 <cpu_list+0x98>
  4043ec:	910920d9 	add	x25, x6, #0x248
  4043f0:	91100341 	add	x1, x26, #0x400
  4043f4:	a90573fb 	stp	x27, x28, [sp, #80]
  4043f8:	aa1303fc 	mov	x28, x19
  4043fc:	a90683e1 	stp	x1, x0, [sp, #104]
  404400:	f0000260 	adrp	x0, 453000 <cpu_list+0x98>
  404404:	91102000 	add	x0, x0, #0x408
  404408:	5280001b 	mov	w27, #0x0                   	// #0
  40440c:	b90067ff 	str	wzr, [sp, #100]
  404410:	f90043e0 	str	x0, [sp, #128]
  404414:	12800020 	mov	w0, #0xfffffffe            	// #-2
  404418:	b90063e0 	str	w0, [sp, #96]
  40441c:	790123ff 	strh	wzr, [sp, #144]
  404420:	38fbcac0 	ldrsb	w0, [x22, w27, sxtw]
  404424:	93407f64 	sxtw	x4, w27
  404428:	2a0003e7 	mov	w7, w0
  40442c:	3100281f 	cmn	w0, #0xa
  404430:	54000b40 	b.eq	404598 <__gettextparse+0x1e8>  // b.none
  404434:	b94063e1 	ldr	w1, [sp, #96]
  404438:	3100083f 	cmn	w1, #0x2
  40443c:	54001ee0 	b.eq	404818 <__gettextparse+0x468>  // b.none
  404440:	b94063e1 	ldr	w1, [sp, #96]
  404444:	7100003f 	cmp	w1, #0x0
  404448:	54001c0d 	b.le	4047c8 <__gettextparse+0x418>
  40444c:	b94063e1 	ldr	w1, [sp, #96]
  404450:	3861cb21 	ldrb	w1, [x25, w1, sxtw]
  404454:	0b010007 	add	w7, w0, w1
  404458:	7100d8ff 	cmp	w7, #0x36
  40445c:	540009e8 	b.hi	404598 <__gettextparse+0x1e8>  // b.pmore
  404460:	91042322 	add	x2, x25, #0x108
  404464:	38e7c842 	ldrsb	w2, [x2, w7, sxtw]
  404468:	6b01005f 	cmp	w2, w1
  40446c:	54000961 	b.ne	404598 <__gettextparse+0x1e8>  // b.any
  404470:	91050320 	add	x0, x25, #0x140
  404474:	3867c81b 	ldrb	w27, [x0, w7, sxtw]
  404478:	35001afb 	cbnz	w27, 4047d4 <__gettextparse+0x424>
  40447c:	f94043e0 	ldr	x0, [sp, #128]
  404480:	aa1303e7 	mov	x7, x19
  404484:	aa1403e4 	mov	x4, x20
  404488:	128001e1 	mov	w1, #0xfffffff0            	// #-16
  40448c:	38df0002 	ldursb	w2, [x0, #-16]
  404490:	f9400680 	ldr	x0, [x20, #8]
  404494:	91002094 	add	x20, x4, #0x8
  404498:	79c000e8 	ldrsh	w8, [x7]
  40449c:	f9000480 	str	x0, [x4, #8]
  4044a0:	0b020100 	add	w0, w8, w2
  4044a4:	7100d81f 	cmp	w0, #0x36
  4044a8:	540000a8 	b.hi	4044bc <__gettextparse+0x10c>  // b.pmore
  4044ac:	91042322 	add	x2, x25, #0x108
  4044b0:	38e0c842 	ldrsb	w2, [x2, w0, sxtw]
  4044b4:	6b08005f 	cmp	w2, w8
  4044b8:	54001aa0 	b.eq	40480c <__gettextparse+0x45c>  // b.none
  4044bc:	f94037e0 	ldr	x0, [sp, #104]
  4044c0:	38e1c81b 	ldrsb	w27, [x0, w1, sxtw]
  4044c4:	d37ffaa1 	lsl	x1, x21, #1
  4044c8:	910008f3 	add	x19, x7, #0x2
  4044cc:	d1000820 	sub	x0, x1, #0x2
  4044d0:	790004fb 	strh	w27, [x7, #2]
  4044d4:	8b000380 	add	x0, x28, x0
  4044d8:	eb00027f 	cmp	x19, x0
  4044dc:	54000543 	b.cc	404584 <__gettextparse+0x1d4>  // b.lo, b.ul, b.last
  4044e0:	cb1c0273 	sub	x19, x19, x28
  4044e4:	d284e1e0 	mov	x0, #0x270f                	// #9999
  4044e8:	9341fe74 	asr	x20, x19, #1
  4044ec:	91000694 	add	x20, x20, #0x1
  4044f0:	eb0002bf 	cmp	x21, x0
  4044f4:	540035e8 	b.hi	404bb0 <__gettextparse+0x800>  // b.pmore
  4044f8:	d284e215 	mov	x21, #0x2710                	// #10000
  4044fc:	eb15003f 	cmp	x1, x21
  404500:	9a959035 	csel	x21, x1, x21, ls  // ls = plast
  404504:	8b150aa0 	add	x0, x21, x21, lsl #2
  404508:	d37ff800 	lsl	x0, x0, #1
  40450c:	91001c00 	add	x0, x0, #0x7
  404510:	940037dc 	bl	412480 <__libc_malloc>
  404514:	aa0003fa 	mov	x26, x0
  404518:	b40034c0 	cbz	x0, 404bb0 <__gettextparse+0x800>
  40451c:	91000a62 	add	x2, x19, #0x2
  404520:	aa1c03e1 	mov	x1, x28
  404524:	8b150418 	add	x24, x0, x21, lsl #1
  404528:	97ffef56 	bl	400280 <.plt+0x10>
  40452c:	d37ffaa0 	lsl	x0, x21, #1
  404530:	d37df294 	lsl	x20, x20, #3
  404534:	aa1703e1 	mov	x1, x23
  404538:	aa1403e2 	mov	x2, x20
  40453c:	f9003fe0 	str	x0, [sp, #120]
  404540:	aa1803e0 	mov	x0, x24
  404544:	97ffef4f 	bl	400280 <.plt+0x10>
  404548:	910243e0 	add	x0, sp, #0x90
  40454c:	eb00039f 	cmp	x28, x0
  404550:	54000060 	b.eq	40455c <__gettextparse+0x1ac>  // b.none
  404554:	aa1c03e0 	mov	x0, x28
  404558:	9400391a 	bl	4129c0 <__free>
  40455c:	d37ffaa0 	lsl	x0, x21, #1
  404560:	d1002294 	sub	x20, x20, #0x8
  404564:	d1000817 	sub	x23, x0, #0x2
  404568:	8b130353 	add	x19, x26, x19
  40456c:	8b170357 	add	x23, x26, x23
  404570:	8b140314 	add	x20, x24, x20
  404574:	eb17027f 	cmp	x19, x23
  404578:	54003222 	b.cs	404bbc <__gettextparse+0x80c>  // b.hs, b.nlast
  40457c:	aa1803f7 	mov	x23, x24
  404580:	aa1a03fc 	mov	x28, x26
  404584:	7100277f 	cmp	w27, #0x9
  404588:	54fff4c1 	b.ne	404420 <__gettextparse+0x70>  // b.any
  40458c:	aa1c03f3 	mov	x19, x28
  404590:	52800014 	mov	w20, #0x0                   	// #0
  404594:	1400007f 	b	404790 <__gettextparse+0x3e0>
  404598:	9105e321 	add	x1, x25, #0x178
  40459c:	38646821 	ldrb	w1, [x1, x4]
  4045a0:	35000421 	cbnz	w1, 404624 <__gettextparse+0x274>
  4045a4:	b94067e1 	ldr	w1, [sp, #100]
  4045a8:	71000c3f 	cmp	w1, #0x3
  4045ac:	540000a1 	b.ne	4045c0 <__gettextparse+0x210>  // b.any
  4045b0:	b94063e1 	ldr	w1, [sp, #96]
  4045b4:	7100003f 	cmp	w1, #0x0
  4045b8:	5400124c 	b.gt	404800 <__gettextparse+0x450>
  4045bc:	540022c0 	b.eq	404a14 <__gettextparse+0x664>  // b.none
  4045c0:	91042322 	add	x2, x25, #0x108
  4045c4:	91050327 	add	x7, x25, #0x140
  4045c8:	14000006 	b	4045e0 <__gettextparse+0x230>
  4045cc:	eb1c027f 	cmp	x19, x28
  4045d0:	54000de0 	b.eq	40478c <__gettextparse+0x3dc>  // b.none
  4045d4:	78dfee60 	ldrsh	w0, [x19, #-2]!
  4045d8:	d1002294 	sub	x20, x20, #0x8
  4045dc:	38e0cac0 	ldrsb	w0, [x22, w0, sxtw]
  4045e0:	3100281f 	cmn	w0, #0xa
  4045e4:	54ffff40 	b.eq	4045cc <__gettextparse+0x21c>  // b.none
  4045e8:	11000400 	add	w0, w0, #0x1
  4045ec:	7100d81f 	cmp	w0, #0x36
  4045f0:	54fffee8 	b.hi	4045cc <__gettextparse+0x21c>  // b.pmore
  4045f4:	38e0c841 	ldrsb	w1, [x2, w0, sxtw]
  4045f8:	7100043f 	cmp	w1, #0x1
  4045fc:	54fffe81 	b.ne	4045cc <__gettextparse+0x21c>  // b.any
  404600:	3860c8fb 	ldrb	w27, [x7, w0, sxtw]
  404604:	34fffe5b 	cbz	w27, 4045cc <__gettextparse+0x21c>
  404608:	52800060 	mov	w0, #0x3                   	// #3
  40460c:	b90067e0 	str	w0, [sp, #100]
  404610:	f94047e0 	ldr	x0, [sp, #136]
  404614:	aa1303e7 	mov	x7, x19
  404618:	91002294 	add	x20, x20, #0x8
  40461c:	f9000280 	str	x0, [x20]
  404620:	17ffffa9 	b	4044c4 <__gettextparse+0x114>
  404624:	91066320 	add	x0, x25, #0x198
  404628:	52800022 	mov	w2, #0x1                   	// #1
  40462c:	3861c804 	ldrb	w4, [x0, w1, sxtw]
  404630:	4b040040 	sub	w0, w2, w4
  404634:	f860da80 	ldr	x0, [x20, w0, sxtw #3]
  404638:	7100203f 	cmp	w1, #0x8
  40463c:	54001200 	b.eq	40487c <__gettextparse+0x4cc>  // b.none
  404640:	54000548 	b.hi	4046e8 <__gettextparse+0x338>  // b.pmore
  404644:	7100143f 	cmp	w1, #0x5
  404648:	54001700 	b.eq	404928 <__gettextparse+0x578>  // b.none
  40464c:	54000248 	b.hi	404694 <__gettextparse+0x2e4>  // b.pmore
  404650:	71000c3f 	cmp	w1, #0x3
  404654:	54001440 	b.eq	4048dc <__gettextparse+0x52c>  // b.none
  404658:	7100103f 	cmp	w1, #0x4
  40465c:	54000821 	b.ne	404760 <__gettextparse+0x3b0>  // b.any
  404660:	f85f0298 	ldur	x24, [x20, #-16]
  404664:	f940029a 	ldr	x26, [x20]
  404668:	f100031f 	cmp	x24, #0x0
  40466c:	fa401b44 	ccmp	x26, #0x0, #0x4, ne  // ne = any
  404670:	540012a0 	b.eq	4048c4 <__gettextparse+0x514>  // b.none
  404674:	d2800400 	mov	x0, #0x20                  	// #32
  404678:	94003782 	bl	412480 <__libc_malloc>
  40467c:	b4001240 	cbz	x0, 4048c4 <__gettextparse+0x514>
  404680:	d2800041 	mov	x1, #0x2                   	// #2
  404684:	f900081a 	str	x26, [x0, #16]
  404688:	f2c001e1 	movk	x1, #0xf, lsl #32
  40468c:	a9006001 	stp	x1, x24, [x0]
  404690:	14000011 	b	4046d4 <__gettextparse+0x324>
  404694:	7100183f 	cmp	w1, #0x6
  404698:	54000f20 	b.eq	40487c <__gettextparse+0x4cc>  // b.none
  40469c:	71001c3f 	cmp	w1, #0x7
  4046a0:	54002941 	b.ne	404bc8 <__gettextparse+0x818>  // b.any
  4046a4:	f85f029a 	ldur	x26, [x20, #-16]
  4046a8:	f9400298 	ldr	x24, [x20]
  4046ac:	f100035f 	cmp	x26, #0x0
  4046b0:	b85f829b 	ldur	w27, [x20, #-8]
  4046b4:	fa401b04 	ccmp	x24, #0x0, #0x4, ne  // ne = any
  4046b8:	54000ee0 	b.eq	404894 <__gettextparse+0x4e4>  // b.none
  4046bc:	d2800400 	mov	x0, #0x20                  	// #32
  4046c0:	94003770 	bl	412480 <__libc_malloc>
  4046c4:	b4000e80 	cbz	x0, 404894 <__gettextparse+0x4e4>
  4046c8:	52800042 	mov	w2, #0x2                   	// #2
  4046cc:	29006c02 	stp	w2, w27, [x0]
  4046d0:	a900e01a 	stp	x26, x24, [x0, #8]
  4046d4:	d1001a67 	sub	x7, x19, #0x6
  4046d8:	d1006284 	sub	x4, x20, #0x18
  4046dc:	12800002 	mov	w2, #0xffffffff            	// #-1
  4046e0:	52800041 	mov	w1, #0x2                   	// #2
  4046e4:	17ffff6c 	b	404494 <__gettextparse+0xe4>
  4046e8:	71002c3f 	cmp	w1, #0xb
  4046ec:	54001380 	b.eq	40495c <__gettextparse+0x5ac>  // b.none
  4046f0:	54000169 	b.ls	40471c <__gettextparse+0x36c>  // b.plast
  4046f4:	7100303f 	cmp	w1, #0xc
  4046f8:	54001440 	b.eq	404980 <__gettextparse+0x5d0>  // b.none
  4046fc:	7100343f 	cmp	w1, #0xd
  404700:	54002641 	b.ne	404bc8 <__gettextparse+0x818>  // b.any
  404704:	d1001a67 	sub	x7, x19, #0x6
  404708:	d1006284 	sub	x4, x20, #0x18
  40470c:	12800002 	mov	w2, #0xffffffff            	// #-1
  404710:	52800041 	mov	w1, #0x2                   	// #2
  404714:	f85f8280 	ldur	x0, [x20, #-8]
  404718:	17ffff5f 	b	404494 <__gettextparse+0xe4>
  40471c:	7100243f 	cmp	w1, #0x9
  404720:	54fffc20 	b.eq	4046a4 <__gettextparse+0x2f4>  // b.none
  404724:	7100283f 	cmp	w1, #0xa
  404728:	54002501 	b.ne	404bc8 <__gettextparse+0x818>  // b.any
  40472c:	f9400298 	ldr	x24, [x20]
  404730:	b4001798 	cbz	x24, 404a20 <__gettextparse+0x670>
  404734:	d2800400 	mov	x0, #0x20                  	// #32
  404738:	94003752 	bl	412480 <__libc_malloc>
  40473c:	b4001720 	cbz	x0, 404a20 <__gettextparse+0x670>
  404740:	d2800021 	mov	x1, #0x1                   	// #1
  404744:	f2c00041 	movk	x1, #0x2, lsl #32
  404748:	a9006001 	stp	x1, x24, [x0]
  40474c:	d1001267 	sub	x7, x19, #0x4
  404750:	d1004284 	sub	x4, x20, #0x10
  404754:	12800002 	mov	w2, #0xffffffff            	// #-1
  404758:	52800041 	mov	w1, #0x2                   	// #2
  40475c:	17ffff4e 	b	404494 <__gettextparse+0xe4>
  404760:	7100083f 	cmp	w1, #0x2
  404764:	54002321 	b.ne	404bc8 <__gettextparse+0x818>  // b.any
  404768:	f9400288 	ldr	x8, [x20]
  40476c:	b40020c8 	cbz	x8, 404b84 <__gettextparse+0x7d4>
  404770:	f9403be3 	ldr	x3, [sp, #112]
  404774:	2a0203e1 	mov	w1, w2
  404778:	d1000a67 	sub	x7, x19, #0x2
  40477c:	d1002284 	sub	x4, x20, #0x8
  404780:	12800122 	mov	w2, #0xfffffff6            	// #-10
  404784:	f9000468 	str	x8, [x3, #8]
  404788:	17ffff43 	b	404494 <__gettextparse+0xe4>
  40478c:	52800034 	mov	w20, #0x1                   	// #1
  404790:	910243e0 	add	x0, sp, #0x90
  404794:	eb00027f 	cmp	x19, x0
  404798:	54000060 	b.eq	4047a4 <__gettextparse+0x3f4>  // b.none
  40479c:	aa1303e0 	mov	x0, x19
  4047a0:	94003888 	bl	4129c0 <__free>
  4047a4:	2a1403e0 	mov	w0, w20
  4047a8:	a9407bfd 	ldp	x29, x30, [sp]
  4047ac:	a94153f3 	ldp	x19, x20, [sp, #16]
  4047b0:	a9425bf5 	ldp	x21, x22, [sp, #32]
  4047b4:	a94363f7 	ldp	x23, x24, [sp, #48]
  4047b8:	a9446bf9 	ldp	x25, x26, [sp, #64]
  4047bc:	a94573fb 	ldp	x27, x28, [sp, #80]
  4047c0:	912183ff 	add	sp, sp, #0x860
  4047c4:	d65f03c0 	ret
  4047c8:	52800001 	mov	w1, #0x0                   	// #0
  4047cc:	b90063ff 	str	wzr, [sp, #96]
  4047d0:	17ffff22 	b	404458 <__gettextparse+0xa8>
  4047d4:	b94067e1 	ldr	w1, [sp, #100]
  4047d8:	12800022 	mov	w2, #0xfffffffe            	// #-2
  4047dc:	aa1303e7 	mov	x7, x19
  4047e0:	91002294 	add	x20, x20, #0x8
  4047e4:	7100003f 	cmp	w1, #0x0
  4047e8:	1a9f07e0 	cset	w0, ne  // ne = any
  4047ec:	4b000020 	sub	w0, w1, w0
  4047f0:	290c03e2 	stp	w2, w0, [sp, #96]
  4047f4:	f94047e0 	ldr	x0, [sp, #136]
  4047f8:	f9000280 	str	x0, [x20]
  4047fc:	17ffff32 	b	4044c4 <__gettextparse+0x114>
  404800:	12800021 	mov	w1, #0xfffffffe            	// #-2
  404804:	b90063e1 	str	w1, [sp, #96]
  404808:	17ffff6e 	b	4045c0 <__gettextparse+0x210>
  40480c:	91050321 	add	x1, x25, #0x140
  404810:	3860c83b 	ldrb	w27, [x1, w0, sxtw]
  404814:	17ffff2c 	b	4044c4 <__gettextparse+0x114>
  404818:	f9403be1 	ldr	x1, [sp, #112]
  40481c:	f9400022 	ldr	x2, [x1]
  404820:	14000006 	b	404838 <__gettextparse+0x488>
  404824:	7100803f 	cmp	w1, #0x20
  404828:	aa0203e8 	mov	x8, x2
  40482c:	7a491824 	ccmp	w1, #0x9, #0x4, ne  // ne = any
  404830:	91000442 	add	x2, x2, #0x1
  404834:	54000101 	b.ne	404854 <__gettextparse+0x4a4>  // b.any
  404838:	39400041 	ldrb	w1, [x2]
  40483c:	35ffff41 	cbnz	w1, 404824 <__gettextparse+0x474>
  404840:	f9403be3 	ldr	x3, [sp, #112]
  404844:	52800001 	mov	w1, #0x0                   	// #0
  404848:	b90063ff 	str	wzr, [sp, #96]
  40484c:	f9000062 	str	x2, [x3]
  404850:	17ffff02 	b	404458 <__gettextparse+0xa8>
  404854:	51002829 	sub	w9, w1, #0xa
  404858:	b90063e1 	str	w1, [sp, #96]
  40485c:	7101c93f 	cmp	w9, #0x72
  404860:	54000269 	b.ls	4048ac <__gettextparse+0x4fc>  // b.plast
  404864:	52802003 	mov	w3, #0x100                 	// #256
  404868:	b90063e3 	str	w3, [sp, #96]
  40486c:	f9403be3 	ldr	x3, [sp, #112]
  404870:	52800021 	mov	w1, #0x1                   	// #1
  404874:	f9000062 	str	x2, [x3]
  404878:	17fffef7 	b	404454 <__gettextparse+0xa4>
  40487c:	f9400298 	ldr	x24, [x20]
  404880:	f85f029a 	ldur	x26, [x20, #-16]
  404884:	f100031f 	cmp	x24, #0x0
  404888:	b85f829b 	ldur	w27, [x20, #-8]
  40488c:	fa401b44 	ccmp	x26, #0x0, #0x4, ne  // ne = any
  404890:	54fff161 	b.ne	4046bc <__gettextparse+0x30c>  // b.any
  404894:	aa1803e0 	mov	x0, x24
  404898:	97fffeaa 	bl	404340 <__gettext_free_exp>
  40489c:	aa1a03e0 	mov	x0, x26
  4048a0:	97fffea8 	bl	404340 <__gettext_free_exp>
  4048a4:	d2800000 	mov	x0, #0x0                   	// #0
  4048a8:	17ffff8b 	b	4046d4 <__gettextparse+0x324>
  4048ac:	f000026a 	adrp	x10, 453000 <cpu_list+0x98>
  4048b0:	9105814a 	add	x10, x10, #0x160
  4048b4:	7869594a 	ldrh	w10, [x10, w9, uxtw #1]
  4048b8:	10000069 	adr	x9, 4048c4 <__gettextparse+0x514>
  4048bc:	8b2aa92a 	add	x10, x9, w10, sxth #2
  4048c0:	d61f0140 	br	x10
  4048c4:	aa1a03e0 	mov	x0, x26
  4048c8:	97fffe9e 	bl	404340 <__gettext_free_exp>
  4048cc:	aa1803e0 	mov	x0, x24
  4048d0:	97fffe9c 	bl	404340 <__gettext_free_exp>
  4048d4:	d2800000 	mov	x0, #0x0                   	// #0
  4048d8:	17ffff7f 	b	4046d4 <__gettextparse+0x324>
  4048dc:	f85f0298 	ldur	x24, [x20, #-16]
  4048e0:	f940029a 	ldr	x26, [x20]
  4048e4:	f100031f 	cmp	x24, #0x0
  4048e8:	f85e029b 	ldur	x27, [x20, #-32]
  4048ec:	fa401b44 	ccmp	x26, #0x0, #0x4, ne  // ne = any
  4048f0:	fa401b64 	ccmp	x27, #0x0, #0x4, ne  // ne = any
  4048f4:	540014e0 	b.eq	404b90 <__gettextparse+0x7e0>  // b.none
  4048f8:	d2800400 	mov	x0, #0x20                  	// #32
  4048fc:	940036e1 	bl	412480 <__libc_malloc>
  404900:	b4001480 	cbz	x0, 404b90 <__gettextparse+0x7e0>
  404904:	d2800062 	mov	x2, #0x3                   	// #3
  404908:	a9016818 	stp	x24, x26, [x0, #16]
  40490c:	f2c00202 	movk	x2, #0x10, lsl #32
  404910:	a9006c02 	stp	x2, x27, [x0]
  404914:	d1002a67 	sub	x7, x19, #0xa
  404918:	d100a284 	sub	x4, x20, #0x28
  40491c:	12800002 	mov	w2, #0xffffffff            	// #-1
  404920:	52800041 	mov	w1, #0x2                   	// #2
  404924:	17fffedc 	b	404494 <__gettextparse+0xe4>
  404928:	f940029a 	ldr	x26, [x20]
  40492c:	f85f0298 	ldur	x24, [x20, #-16]
  404930:	f100035f 	cmp	x26, #0x0
  404934:	fa401b04 	ccmp	x24, #0x0, #0x4, ne  // ne = any
  404938:	54fffc60 	b.eq	4048c4 <__gettextparse+0x514>  // b.none
  40493c:	d2800400 	mov	x0, #0x20                  	// #32
  404940:	940036d0 	bl	412480 <__libc_malloc>
  404944:	b4fffc00 	cbz	x0, 4048c4 <__gettextparse+0x514>
  404948:	d2800041 	mov	x1, #0x2                   	// #2
  40494c:	f900081a 	str	x26, [x0, #16]
  404950:	f2c001c1 	movk	x1, #0xe, lsl #32
  404954:	a9006001 	stp	x1, x24, [x0]
  404958:	17ffff5f 	b	4046d4 <__gettextparse+0x324>
  40495c:	d2800400 	mov	x0, #0x20                  	// #32
  404960:	940036c8 	bl	412480 <__libc_malloc>
  404964:	d1002284 	sub	x4, x20, #0x8
  404968:	d1000a67 	sub	x7, x19, #0x2
  40496c:	12800002 	mov	w2, #0xffffffff            	// #-1
  404970:	52800041 	mov	w1, #0x2                   	// #2
  404974:	b4ffd900 	cbz	x0, 404494 <__gettextparse+0xe4>
  404978:	f900001f 	str	xzr, [x0]
  40497c:	17fffec6 	b	404494 <__gettextparse+0xe4>
  404980:	d2800400 	mov	x0, #0x20                  	// #32
  404984:	940036bf 	bl	412480 <__libc_malloc>
  404988:	d1000a67 	sub	x7, x19, #0x2
  40498c:	d1002284 	sub	x4, x20, #0x8
  404990:	b4001300 	cbz	x0, 404bf0 <__gettextparse+0x840>
  404994:	f9400288 	ldr	x8, [x20]
  404998:	d2c00029 	mov	x9, #0x100000000           	// #4294967296
  40499c:	12800002 	mov	w2, #0xffffffff            	// #-1
  4049a0:	52800041 	mov	w1, #0x2                   	// #2
  4049a4:	a9002009 	stp	x9, x8, [x0]
  4049a8:	17fffebb 	b	404494 <__gettextparse+0xe4>
  4049ac:	39400508 	ldrb	w8, [x8, #1]
  4049b0:	5100c021 	sub	w1, w1, #0x30
  4049b4:	5100c107 	sub	w7, w8, #0x30
  4049b8:	93407c21 	sxtw	x1, w1
  4049bc:	12001ce8 	and	w8, w7, #0xff
  4049c0:	7100251f 	cmp	w8, #0x9
  4049c4:	54000128 	b.hi	4049e8 <__gettextparse+0x638>  // b.pmore
  4049c8:	38401c48 	ldrb	w8, [x2, #1]!
  4049cc:	93407ce9 	sxtw	x9, w7
  4049d0:	8b010821 	add	x1, x1, x1, lsl #2
  4049d4:	5100c107 	sub	w7, w8, #0x30
  4049d8:	12001ce8 	and	w8, w7, #0xff
  4049dc:	8b010521 	add	x1, x9, x1, lsl #1
  4049e0:	7100251f 	cmp	w8, #0x9
  4049e4:	54ffff29 	b.ls	4049c8 <__gettextparse+0x618>  // b.plast
  4049e8:	528020c3 	mov	w3, #0x106                 	// #262
  4049ec:	b90063e3 	str	w3, [sp, #96]
  4049f0:	f9403be3 	ldr	x3, [sp, #112]
  4049f4:	f90047e1 	str	x1, [sp, #136]
  4049f8:	52800161 	mov	w1, #0xb                   	// #11
  4049fc:	f9000062 	str	x2, [x3]
  404a00:	17fffe95 	b	404454 <__gettextparse+0xa4>
  404a04:	3861cb21 	ldrb	w1, [x25, w1, sxtw]
  404a08:	f9403be3 	ldr	x3, [sp, #112]
  404a0c:	f9000062 	str	x2, [x3]
  404a10:	17fffe91 	b	404454 <__gettextparse+0xa4>
  404a14:	aa1c03f3 	mov	x19, x28
  404a18:	52800034 	mov	w20, #0x1                   	// #1
  404a1c:	17ffff5d 	b	404790 <__gettextparse+0x3e0>
  404a20:	aa1803e0 	mov	x0, x24
  404a24:	97fffe47 	bl	404340 <__gettext_free_exp>
  404a28:	d2800000 	mov	x0, #0x0                   	// #0
  404a2c:	17ffff48 	b	40474c <__gettextparse+0x39c>
  404a30:	39400507 	ldrb	w7, [x8, #1]
  404a34:	6b0100ff 	cmp	w7, w1
  404a38:	54fff161 	b.ne	404864 <__gettextparse+0x4b4>  // b.any
  404a3c:	3861cb21 	ldrb	w1, [x25, w1, sxtw]
  404a40:	91000902 	add	x2, x8, #0x2
  404a44:	17fffff1 	b	404a08 <__gettextparse+0x658>
  404a48:	f9403be2 	ldr	x2, [sp, #112]
  404a4c:	52800001 	mov	w1, #0x0                   	// #0
  404a50:	b90063ff 	str	wzr, [sp, #96]
  404a54:	f9000048 	str	x8, [x2]
  404a58:	17fffe80 	b	404458 <__gettextparse+0xa8>
  404a5c:	39400507 	ldrb	w7, [x8, #1]
  404a60:	52800423 	mov	w3, #0x21                  	// #33
  404a64:	b90063e3 	str	w3, [sp, #96]
  404a68:	52800141 	mov	w1, #0xa                   	// #10
  404a6c:	7100f4ff 	cmp	w7, #0x3d
  404a70:	54fffcc1 	b.ne	404a08 <__gettextparse+0x658>  // b.any
  404a74:	d28001a1 	mov	x1, #0xd                   	// #13
  404a78:	f94047e2 	ldr	x2, [sp, #136]
  404a7c:	91000908 	add	x8, x8, #0x2
  404a80:	b3407c22 	bfxil	x2, x1, #0, #32
  404a84:	f90047e2 	str	x2, [sp, #136]
  404a88:	52802042 	mov	w2, #0x102                 	// #258
  404a8c:	b90063e2 	str	w2, [sp, #96]
  404a90:	f9403be2 	ldr	x2, [sp, #112]
  404a94:	528000c1 	mov	w1, #0x6                   	// #6
  404a98:	f9000048 	str	x8, [x2]
  404a9c:	17fffe6e 	b	404454 <__gettextparse+0xa4>
  404aa0:	d2800067 	mov	x7, #0x3                   	// #3
  404aa4:	f94047e3 	ldr	x3, [sp, #136]
  404aa8:	52800121 	mov	w1, #0x9                   	// #9
  404aac:	b3407ce3 	bfxil	x3, x7, #0, #32
  404ab0:	f90047e3 	str	x3, [sp, #136]
  404ab4:	528020a3 	mov	w3, #0x105                 	// #261
  404ab8:	b90063e3 	str	w3, [sp, #96]
  404abc:	f9403be3 	ldr	x3, [sp, #112]
  404ac0:	f9000062 	str	x2, [x3]
  404ac4:	17fffe64 	b	404454 <__gettextparse+0xa4>
  404ac8:	d28000a7 	mov	x7, #0x5                   	// #5
  404acc:	17fffff6 	b	404aa4 <__gettextparse+0x6f4>
  404ad0:	39400501 	ldrb	w1, [x8, #1]
  404ad4:	d2800127 	mov	x7, #0x9                   	// #9
  404ad8:	7100f43f 	cmp	w1, #0x3d
  404adc:	54000860 	b.eq	404be8 <__gettextparse+0x838>  // b.none
  404ae0:	f94047e3 	ldr	x3, [sp, #136]
  404ae4:	528000e1 	mov	w1, #0x7                   	// #7
  404ae8:	b3407ce3 	bfxil	x3, x7, #0, #32
  404aec:	f90047e3 	str	x3, [sp, #136]
  404af0:	52802063 	mov	w3, #0x103                 	// #259
  404af4:	b90063e3 	str	w3, [sp, #96]
  404af8:	17ffffc4 	b	404a08 <__gettextparse+0x658>
  404afc:	d2800087 	mov	x7, #0x4                   	// #4
  404b00:	17ffffe9 	b	404aa4 <__gettextparse+0x6f4>
  404b04:	39400501 	ldrb	w1, [x8, #1]
  404b08:	7100f43f 	cmp	w1, #0x3d
  404b0c:	54ffeac1 	b.ne	404864 <__gettextparse+0x4b4>  // b.any
  404b10:	d2800181 	mov	x1, #0xc                   	// #12
  404b14:	17ffffd9 	b	404a78 <__gettextparse+0x6c8>
  404b18:	39400501 	ldrb	w1, [x8, #1]
  404b1c:	d2800107 	mov	x7, #0x8                   	// #8
  404b20:	7100f43f 	cmp	w1, #0x3d
  404b24:	54fffde1 	b.ne	404ae0 <__gettextparse+0x730>  // b.any
  404b28:	d2800141 	mov	x1, #0xa                   	// #10
  404b2c:	f94047e2 	ldr	x2, [sp, #136]
  404b30:	91000908 	add	x8, x8, #0x2
  404b34:	b3407c22 	bfxil	x2, x1, #0, #32
  404b38:	f90047e2 	str	x2, [sp, #136]
  404b3c:	52802062 	mov	w2, #0x103                 	// #259
  404b40:	b90063e2 	str	w2, [sp, #96]
  404b44:	f9403be2 	ldr	x2, [sp, #112]
  404b48:	528000e1 	mov	w1, #0x7                   	// #7
  404b4c:	f9000048 	str	x8, [x2]
  404b50:	17fffe41 	b	404454 <__gettextparse+0xa4>
  404b54:	d28000e7 	mov	x7, #0x7                   	// #7
  404b58:	f94047e3 	ldr	x3, [sp, #136]
  404b5c:	52800101 	mov	w1, #0x8                   	// #8
  404b60:	b3407ce3 	bfxil	x3, x7, #0, #32
  404b64:	f90047e3 	str	x3, [sp, #136]
  404b68:	52802083 	mov	w3, #0x104                 	// #260
  404b6c:	b90063e3 	str	w3, [sp, #96]
  404b70:	f9403be3 	ldr	x3, [sp, #112]
  404b74:	f9000062 	str	x2, [x3]
  404b78:	17fffe37 	b	404454 <__gettextparse+0xa4>
  404b7c:	d28000c7 	mov	x7, #0x6                   	// #6
  404b80:	17fffff6 	b	404b58 <__gettextparse+0x7a8>
  404b84:	aa1c03f3 	mov	x19, x28
  404b88:	2a0203f4 	mov	w20, w2
  404b8c:	17ffff01 	b	404790 <__gettextparse+0x3e0>
  404b90:	aa1a03e0 	mov	x0, x26
  404b94:	97fffdeb 	bl	404340 <__gettext_free_exp>
  404b98:	aa1803e0 	mov	x0, x24
  404b9c:	97fffde9 	bl	404340 <__gettext_free_exp>
  404ba0:	aa1b03e0 	mov	x0, x27
  404ba4:	97fffde7 	bl	404340 <__gettext_free_exp>
  404ba8:	d2800000 	mov	x0, #0x0                   	// #0
  404bac:	17ffff5a 	b	404914 <__gettextparse+0x564>
  404bb0:	aa1c03f3 	mov	x19, x28
  404bb4:	52800054 	mov	w20, #0x2                   	// #2
  404bb8:	17fffef6 	b	404790 <__gettextparse+0x3e0>
  404bbc:	aa1a03f3 	mov	x19, x26
  404bc0:	52800034 	mov	w20, #0x1                   	// #1
  404bc4:	17fffef6 	b	40479c <__gettextparse+0x3ec>
  404bc8:	9106a322 	add	x2, x25, #0x1a8
  404bcc:	cb240667 	sub	x7, x19, w4, uxtb #1
  404bd0:	cb240e84 	sub	x4, x20, w4, uxtb #3
  404bd4:	3861c841 	ldrb	w1, [x2, w1, sxtw]
  404bd8:	f94043e2 	ldr	x2, [sp, #128]
  404bdc:	51004021 	sub	w1, w1, #0x10
  404be0:	38e1c842 	ldrsb	w2, [x2, w1, sxtw]
  404be4:	17fffe2c 	b	404494 <__gettextparse+0xe4>
  404be8:	d2800161 	mov	x1, #0xb                   	// #11
  404bec:	17ffffd0 	b	404b2c <__gettextparse+0x77c>
  404bf0:	12800002 	mov	w2, #0xffffffff            	// #-1
  404bf4:	52800041 	mov	w1, #0x2                   	// #2
  404bf8:	17fffe27 	b	404494 <__gettextparse+0xe4>
  404bfc:	d503201f 	nop

0000000000404c00 <__gettext_extract_plural>:
  404c00:	a9bb7bfd 	stp	x29, x30, [sp, #-80]!
  404c04:	910003fd 	mov	x29, sp
  404c08:	a90153f3 	stp	x19, x20, [sp, #16]
  404c0c:	aa0203f4 	mov	x20, x2
  404c10:	a9025bf5 	stp	x21, x22, [sp, #32]
  404c14:	aa0103f5 	mov	x21, x1
  404c18:	b4000620 	cbz	x0, 404cdc <__gettext_extract_plural+0xdc>
  404c1c:	aa0003f3 	mov	x19, x0
  404c20:	f0000261 	adrp	x1, 453000 <cpu_list+0x98>
  404c24:	9110c021 	add	x1, x1, #0x430
  404c28:	94003f06 	bl	414840 <strstr>
  404c2c:	f0000261 	adrp	x1, 453000 <cpu_list+0x98>
  404c30:	aa0003f6 	mov	x22, x0
  404c34:	9110e021 	add	x1, x1, #0x438
  404c38:	aa1303e0 	mov	x0, x19
  404c3c:	94003f01 	bl	414840 <strstr>
  404c40:	f10002df 	cmp	x22, #0x0
  404c44:	fa401804 	ccmp	x0, #0x0, #0x4, ne  // ne = any
  404c48:	540004a0 	b.eq	404cdc <__gettext_extract_plural+0xdc>  // b.none
  404c4c:	39402403 	ldrb	w3, [x0, #9]
  404c50:	91002413 	add	x19, x0, #0x9
  404c54:	34000443 	cbz	w3, 404cdc <__gettext_extract_plural+0xdc>
  404c58:	f0000420 	adrp	x0, 48b000 <__FRAME_END__+0x103d8>
  404c5c:	f947d400 	ldr	x0, [x0, #4008]
  404c60:	d53bd041 	mrs	x1, tpidr_el0
  404c64:	f8606821 	ldr	x1, [x1, x0]
  404c68:	14000003 	b	404c74 <__gettext_extract_plural+0x74>
  404c6c:	38401e63 	ldrb	w3, [x19, #1]!
  404c70:	34000363 	cbz	w3, 404cdc <__gettext_extract_plural+0xdc>
  404c74:	d37f1c60 	ubfiz	x0, x3, #1, #8
  404c78:	78606824 	ldrh	w4, [x1, x0]
  404c7c:	376fff84 	tbnz	w4, #13, 404c6c <__gettext_extract_plural+0x6c>
  404c80:	5100c063 	sub	w3, w3, #0x30
  404c84:	12001c63 	and	w3, w3, #0xff
  404c88:	7100247f 	cmp	w3, #0x9
  404c8c:	54000288 	b.hi	404cdc <__gettext_extract_plural+0xdc>  // b.pmore
  404c90:	9100e3e1 	add	x1, sp, #0x38
  404c94:	aa1303e0 	mov	x0, x19
  404c98:	52800142 	mov	w2, #0xa                   	// #10
  404c9c:	94000376 	bl	405a74 <__strtoul>
  404ca0:	f9401fe1 	ldr	x1, [sp, #56]
  404ca4:	eb13003f 	cmp	x1, x19
  404ca8:	540001a0 	b.eq	404cdc <__gettext_extract_plural+0xdc>  // b.none
  404cac:	f9000280 	str	x0, [x20]
  404cb0:	91001ed6 	add	x22, x22, #0x7
  404cb4:	910103e0 	add	x0, sp, #0x40
  404cb8:	f90023f6 	str	x22, [sp, #64]
  404cbc:	97fffdbd 	bl	4043b0 <__gettextparse>
  404cc0:	350000e0 	cbnz	w0, 404cdc <__gettext_extract_plural+0xdc>
  404cc4:	f94027e0 	ldr	x0, [sp, #72]
  404cc8:	f90002a0 	str	x0, [x21]
  404ccc:	a94153f3 	ldp	x19, x20, [sp, #16]
  404cd0:	a9425bf5 	ldp	x21, x22, [sp, #32]
  404cd4:	a8c57bfd 	ldp	x29, x30, [sp], #80
  404cd8:	d65f03c0 	ret
  404cdc:	f0000260 	adrp	x0, 453000 <cpu_list+0x98>
  404ce0:	91112000 	add	x0, x0, #0x448
  404ce4:	f90002a0 	str	x0, [x21]
  404ce8:	d2800040 	mov	x0, #0x2                   	// #2
  404cec:	f9000280 	str	x0, [x20]
  404cf0:	a94153f3 	ldp	x19, x20, [sp, #16]
  404cf4:	a9425bf5 	ldp	x21, x22, [sp, #32]
  404cf8:	a8c57bfd 	ldp	x29, x30, [sp], #80
  404cfc:	d65f03c0 	ret

0000000000404d00 <__hash_string>:
  404d00:	aa0003e2 	mov	x2, x0
  404d04:	38401441 	ldrb	w1, [x2], #1
  404d08:	92401c20 	and	x0, x1, #0xff
  404d0c:	350000e1 	cbnz	w1, 404d28 <__hash_string+0x28>
  404d10:	1400000b 	b	404d3c <__hash_string+0x3c>
  404d14:	8b001060 	add	x0, x3, x0, lsl #4
  404d18:	f2640c01 	ands	x1, x0, #0xf0000000
  404d1c:	9260ec03 	and	x3, x0, #0xffffffff0fffffff
  404d20:	ca416061 	eor	x1, x3, x1, lsr #24
  404d24:	9a810000 	csel	x0, x0, x1, eq  // eq = none
  404d28:	39400041 	ldrb	w1, [x2]
  404d2c:	91000442 	add	x2, x2, #0x1
  404d30:	92401c23 	and	x3, x1, #0xff
  404d34:	35ffff01 	cbnz	w1, 404d14 <__hash_string+0x14>
  404d38:	d65f03c0 	ret
  404d3c:	d2800000 	mov	x0, #0x0                   	// #0
  404d40:	d65f03c0 	ret
  404d44:	d503201f 	nop
  404d48:	d503201f 	nop
  404d4c:	d503201f 	nop
  404d50:	d503201f 	nop
  404d54:	d503201f 	nop
  404d58:	d503201f 	nop
  404d5c:	d503201f 	nop
  404d60:	d503201f 	nop
  404d64:	d503201f 	nop
  404d68:	d503201f 	nop
  404d6c:	d503201f 	nop
  404d70:	d503201f 	nop
  404d74:	d503201f 	nop
  404d78:	d503201f 	nop
  404d7c:	d503201f 	nop

0000000000404d80 <setjmp>:
  404d80:	d503201f 	nop
  404d84:	d2800021 	mov	x1, #0x1                   	// #1
  404d88:	1400001f 	b	404e04 <__sigsetjmp+0x4>
  404d8c:	d503201f 	nop
  404d90:	d503201f 	nop
  404d94:	d503201f 	nop
  404d98:	d503201f 	nop
  404d9c:	d503201f 	nop
  404da0:	d503201f 	nop
  404da4:	d503201f 	nop
  404da8:	d503201f 	nop
  404dac:	d503201f 	nop
  404db0:	d503201f 	nop
  404db4:	d503201f 	nop
  404db8:	d503201f 	nop
  404dbc:	d503201f 	nop

0000000000404dc0 <_setjmp>:
  404dc0:	d503201f 	nop
  404dc4:	d2800001 	mov	x1, #0x0                   	// #0
  404dc8:	1400000f 	b	404e04 <__sigsetjmp+0x4>
  404dcc:	d503201f 	nop
  404dd0:	d503201f 	nop
  404dd4:	d503201f 	nop
  404dd8:	d503201f 	nop
  404ddc:	d503201f 	nop
  404de0:	d503201f 	nop
  404de4:	d503201f 	nop
  404de8:	d503201f 	nop
  404dec:	d503201f 	nop
  404df0:	d503201f 	nop
  404df4:	d503201f 	nop
  404df8:	d503201f 	nop
  404dfc:	d503201f 	nop

0000000000404e00 <__sigsetjmp>:
  404e00:	d503201f 	nop
  404e04:	a9005013 	stp	x19, x20, [x0]
  404e08:	a9015815 	stp	x21, x22, [x0, #16]
  404e0c:	a9026017 	stp	x23, x24, [x0, #32]
  404e10:	a9036819 	stp	x25, x26, [x0, #48]
  404e14:	a904701b 	stp	x27, x28, [x0, #64]
  404e18:	f0000422 	adrp	x2, 48b000 <__FRAME_END__+0x103d8>
  404e1c:	f941f843 	ldr	x3, [x2, #1008]
  404e20:	ca0303c4 	eor	x4, x30, x3
  404e24:	a905101d 	stp	x29, x4, [x0, #80]
  404e28:	6d072408 	stp	d8, d9, [x0, #112]
  404e2c:	6d082c0a 	stp	d10, d11, [x0, #128]
  404e30:	6d09340c 	stp	d12, d13, [x0, #144]
  404e34:	6d0a3c0e 	stp	d14, d15, [x0, #160]
  404e38:	910003e4 	mov	x4, sp
  404e3c:	f0000422 	adrp	x2, 48b000 <__FRAME_END__+0x103d8>
  404e40:	f941f843 	ldr	x3, [x2, #1008]
  404e44:	ca030085 	eor	x5, x4, x3
  404e48:	f9003405 	str	x5, [x0, #104]
  404e4c:	14000001 	b	404e50 <__sigjmp_save>

0000000000404e50 <__sigjmp_save>:
  404e50:	a9be7bfd 	stp	x29, x30, [sp, #-32]!
  404e54:	910003fd 	mov	x29, sp
  404e58:	f9000bf3 	str	x19, [sp, #16]
  404e5c:	aa0003f3 	mov	x19, x0
  404e60:	350000c1 	cbnz	w1, 404e78 <__sigjmp_save+0x28>
  404e64:	b900b261 	str	w1, [x19, #176]
  404e68:	52800000 	mov	w0, #0x0                   	// #0
  404e6c:	f9400bf3 	ldr	x19, [sp, #16]
  404e70:	a8c27bfd 	ldp	x29, x30, [sp], #32
  404e74:	d65f03c0 	ret
  404e78:	9102e002 	add	x2, x0, #0xb8
  404e7c:	d2800001 	mov	x1, #0x0                   	// #0
  404e80:	52800000 	mov	w0, #0x0                   	// #0
  404e84:	9400001f 	bl	404f00 <__sigprocmask>
  404e88:	7100001f 	cmp	w0, #0x0
  404e8c:	52800000 	mov	w0, #0x0                   	// #0
  404e90:	1a9f17e1 	cset	w1, eq  // eq = none
  404e94:	b900b261 	str	w1, [x19, #176]
  404e98:	f9400bf3 	ldr	x19, [sp, #16]
  404e9c:	a8c27bfd 	ldp	x29, x30, [sp], #32
  404ea0:	d65f03c0 	ret
  404ea4:	d503201f 	nop
  404ea8:	d503201f 	nop
  404eac:	d503201f 	nop

0000000000404eb0 <raise>:
  404eb0:	a9be7bfd 	stp	x29, x30, [sp, #-32]!
  404eb4:	910003fd 	mov	x29, sp
  404eb8:	f9000bf3 	str	x19, [sp, #16]
  404ebc:	2a0003f3 	mov	w19, w0
  404ec0:	94002650 	bl	40e800 <__pthread_self>
  404ec4:	2a1303e1 	mov	w1, w19
  404ec8:	940023d7 	bl	40de24 <__pthread_kill>
  404ecc:	35000080 	cbnz	w0, 404edc <raise+0x2c>
  404ed0:	f9400bf3 	ldr	x19, [sp, #16]
  404ed4:	a8c27bfd 	ldp	x29, x30, [sp], #32
  404ed8:	d65f03c0 	ret
  404edc:	f0000421 	adrp	x1, 48b000 <__FRAME_END__+0x103d8>
  404ee0:	f947c821 	ldr	x1, [x1, #3984]
  404ee4:	d53bd042 	mrs	x2, tpidr_el0
  404ee8:	b8216840 	str	w0, [x2, x1]
  404eec:	12800000 	mov	w0, #0xffffffff            	// #-1
  404ef0:	17fffff8 	b	404ed0 <raise+0x20>
  404ef4:	d503201f 	nop
  404ef8:	d503201f 	nop
  404efc:	d503201f 	nop

0000000000404f00 <__sigprocmask>:
  404f00:	a9bf7bfd 	stp	x29, x30, [sp, #-16]!
  404f04:	910003fd 	mov	x29, sp
  404f08:	94002652 	bl	40e850 <__pthread_sigmask>
  404f0c:	35000060 	cbnz	w0, 404f18 <__sigprocmask+0x18>
  404f10:	a8c17bfd 	ldp	x29, x30, [sp], #16
  404f14:	d65f03c0 	ret
  404f18:	f0000421 	adrp	x1, 48b000 <__FRAME_END__+0x103d8>
  404f1c:	f947c821 	ldr	x1, [x1, #3984]
  404f20:	d53bd042 	mrs	x2, tpidr_el0
  404f24:	b8216840 	str	w0, [x2, x1]
  404f28:	12800000 	mov	w0, #0xffffffff            	// #-1
  404f2c:	17fffff9 	b	404f10 <__sigprocmask+0x10>

0000000000404f30 <msort_with_tmp.part.0>:
  404f30:	a9b87bfd 	stp	x29, x30, [sp, #-128]!
  404f34:	910003fd 	mov	x29, sp
  404f38:	a90573fb 	stp	x27, x28, [sp, #80]
  404f3c:	f940001b 	ldr	x27, [x0]
  404f40:	a90153f3 	stp	x19, x20, [sp, #16]
  404f44:	d341fc54 	lsr	x20, x2, #1
  404f48:	a9025bf5 	stp	x21, x22, [sp, #32]
  404f4c:	cb140053 	sub	x19, x2, x20
  404f50:	aa0003f6 	mov	x22, x0
  404f54:	a90363f7 	stp	x23, x24, [sp, #48]
  404f58:	9b1b069b 	madd	x27, x20, x27, x1
  404f5c:	a9046bf9 	stp	x25, x26, [sp, #64]
  404f60:	aa0203f9 	mov	x25, x2
  404f64:	f9003fe1 	str	x1, [sp, #120]
  404f68:	f100069f 	cmp	x20, #0x1
  404f6c:	54000060 	b.eq	404f78 <msort_with_tmp.part.0+0x48>  // b.none
  404f70:	aa1403e2 	mov	x2, x20
  404f74:	97ffffef 	bl	404f30 <msort_with_tmp.part.0>
  404f78:	f100067f 	cmp	x19, #0x1
  404f7c:	54000609 	b.ls	40503c <msort_with_tmp.part.0+0x10c>  // b.plast
  404f80:	aa1603e0 	mov	x0, x22
  404f84:	aa1303e2 	mov	x2, x19
  404f88:	aa1b03e1 	mov	x1, x27
  404f8c:	97ffffe9 	bl	404f30 <msort_with_tmp.part.0>
  404f90:	a94002d5 	ldp	x21, x0, [x22]
  404f94:	a9415ed8 	ldp	x24, x23, [x22, #16]
  404f98:	f94012dc 	ldr	x28, [x22, #32]
  404f9c:	f100081f 	cmp	x0, #0x2
  404fa0:	54000d40 	b.eq	405148 <msort_with_tmp.part.0+0x218>  // b.none
  404fa4:	54000268 	b.hi	404ff0 <msort_with_tmp.part.0+0xc0>  // b.pmore
  404fa8:	b4000780 	cbz	x0, 405098 <msort_with_tmp.part.0+0x168>
  404fac:	f9403ffa 	ldr	x26, [sp, #120]
  404fb0:	14000007 	b	404fcc <msort_with_tmp.part.0+0x9c>
  404fb4:	f8408760 	ldr	x0, [x27], #8
  404fb8:	d1000673 	sub	x19, x19, #0x1
  404fbc:	f8008780 	str	x0, [x28], #8
  404fc0:	f100029f 	cmp	x20, #0x0
  404fc4:	fa401a64 	ccmp	x19, #0x0, #0x4, ne  // ne = any
  404fc8:	54001000 	b.eq	4051c8 <msort_with_tmp.part.0+0x298>  // b.none
  404fcc:	aa1703e2 	mov	x2, x23
  404fd0:	aa1b03e1 	mov	x1, x27
  404fd4:	aa1a03e0 	mov	x0, x26
  404fd8:	d63f0300 	blr	x24
  404fdc:	7100001f 	cmp	w0, #0x0
  404fe0:	54fffeac 	b.gt	404fb4 <msort_with_tmp.part.0+0x84>
  404fe4:	d1000694 	sub	x20, x20, #0x1
  404fe8:	f8408740 	ldr	x0, [x26], #8
  404fec:	17fffff4 	b	404fbc <msort_with_tmp.part.0+0x8c>
  404ff0:	f1000c1f 	cmp	x0, #0x3
  404ff4:	54000761 	b.ne	4050e0 <msort_with_tmp.part.0+0x1b0>  // b.any
  404ff8:	f9403ffa 	ldr	x26, [sp, #120]
  404ffc:	14000007 	b	405018 <msort_with_tmp.part.0+0xe8>
  405000:	f8408760 	ldr	x0, [x27], #8
  405004:	d1000673 	sub	x19, x19, #0x1
  405008:	f8008780 	str	x0, [x28], #8
  40500c:	f100029f 	cmp	x20, #0x0
  405010:	fa401a64 	ccmp	x19, #0x0, #0x4, ne  // ne = any
  405014:	54000da0 	b.eq	4051c8 <msort_with_tmp.part.0+0x298>  // b.none
  405018:	f9400340 	ldr	x0, [x26]
  40501c:	aa1703e2 	mov	x2, x23
  405020:	f9400361 	ldr	x1, [x27]
  405024:	d63f0300 	blr	x24
  405028:	7100001f 	cmp	w0, #0x0
  40502c:	54fffeac 	b.gt	405000 <msort_with_tmp.part.0+0xd0>
  405030:	d1000694 	sub	x20, x20, #0x1
  405034:	f8408740 	ldr	x0, [x26], #8
  405038:	17fffff4 	b	405008 <msort_with_tmp.part.0+0xd8>
  40503c:	a94002d5 	ldp	x21, x0, [x22]
  405040:	a9415ed8 	ldp	x24, x23, [x22, #16]
  405044:	f94012dc 	ldr	x28, [x22, #32]
  405048:	f100081f 	cmp	x0, #0x2
  40504c:	540007c0 	b.eq	405144 <msort_with_tmp.part.0+0x214>  // b.none
  405050:	54000148 	b.hi	405078 <msort_with_tmp.part.0+0x148>  // b.pmore
  405054:	b40001c0 	cbz	x0, 40508c <msort_with_tmp.part.0+0x15c>
  405058:	b5fffab3 	cbnz	x19, 404fac <msort_with_tmp.part.0+0x7c>
  40505c:	f9403ffa 	ldr	x26, [sp, #120]
  405060:	aa1403f9 	mov	x25, x20
  405064:	9b147ea2 	mul	x2, x21, x20
  405068:	aa1a03e1 	mov	x1, x26
  40506c:	aa1c03e0 	mov	x0, x28
  405070:	97ffec84 	bl	400280 <.plt+0x10>
  405074:	14000057 	b	4051d0 <msort_with_tmp.part.0+0x2a0>
  405078:	f1000c1f 	cmp	x0, #0x3
  40507c:	54000301 	b.ne	4050dc <msort_with_tmp.part.0+0x1ac>  // b.any
  405080:	b4fffef3 	cbz	x19, 40505c <msort_with_tmp.part.0+0x12c>
  405084:	d2800033 	mov	x19, #0x1                   	// #1
  405088:	17ffffdc 	b	404ff8 <msort_with_tmp.part.0+0xc8>
  40508c:	b4fffe93 	cbz	x19, 40505c <msort_with_tmp.part.0+0x12c>
  405090:	d2800033 	mov	x19, #0x1                   	// #1
  405094:	d503201f 	nop
  405098:	f9403ffa 	ldr	x26, [sp, #120]
  40509c:	14000007 	b	4050b8 <msort_with_tmp.part.0+0x188>
  4050a0:	b8404760 	ldr	w0, [x27], #4
  4050a4:	d1000673 	sub	x19, x19, #0x1
  4050a8:	b8004780 	str	w0, [x28], #4
  4050ac:	f100029f 	cmp	x20, #0x0
  4050b0:	fa401a64 	ccmp	x19, #0x0, #0x4, ne  // ne = any
  4050b4:	540008a0 	b.eq	4051c8 <msort_with_tmp.part.0+0x298>  // b.none
  4050b8:	aa1703e2 	mov	x2, x23
  4050bc:	aa1b03e1 	mov	x1, x27
  4050c0:	aa1a03e0 	mov	x0, x26
  4050c4:	d63f0300 	blr	x24
  4050c8:	7100001f 	cmp	w0, #0x0
  4050cc:	54fffeac 	b.gt	4050a0 <msort_with_tmp.part.0+0x170>
  4050d0:	b8404740 	ldr	w0, [x26], #4
  4050d4:	d1000694 	sub	x20, x20, #0x1
  4050d8:	17fffff4 	b	4050a8 <msort_with_tmp.part.0+0x178>
  4050dc:	b4fffc13 	cbz	x19, 40505c <msort_with_tmp.part.0+0x12c>
  4050e0:	f9403ffa 	ldr	x26, [sp, #120]
  4050e4:	14000008 	b	405104 <msort_with_tmp.part.0+0x1d4>
  4050e8:	97ffec66 	bl	400280 <.plt+0x10>
  4050ec:	8b15037b 	add	x27, x27, x21
  4050f0:	d1000673 	sub	x19, x19, #0x1
  4050f4:	8b15001c 	add	x28, x0, x21
  4050f8:	f100029f 	cmp	x20, #0x0
  4050fc:	fa401a64 	ccmp	x19, #0x0, #0x4, ne  // ne = any
  405100:	54000640 	b.eq	4051c8 <msort_with_tmp.part.0+0x298>  // b.none
  405104:	aa1703e2 	mov	x2, x23
  405108:	aa1b03e1 	mov	x1, x27
  40510c:	aa1a03e0 	mov	x0, x26
  405110:	d63f0300 	blr	x24
  405114:	2a0003e3 	mov	w3, w0
  405118:	aa1b03e1 	mov	x1, x27
  40511c:	aa1c03e0 	mov	x0, x28
  405120:	aa1503e2 	mov	x2, x21
  405124:	7100007f 	cmp	w3, #0x0
  405128:	54fffe0c 	b.gt	4050e8 <msort_with_tmp.part.0+0x1b8>
  40512c:	aa1a03e1 	mov	x1, x26
  405130:	d1000694 	sub	x20, x20, #0x1
  405134:	97ffec53 	bl	400280 <.plt+0x10>
  405138:	8b15035a 	add	x26, x26, x21
  40513c:	8b15001c 	add	x28, x0, x21
  405140:	17ffffee 	b	4050f8 <msort_with_tmp.part.0+0x1c8>
  405144:	b4fff8d3 	cbz	x19, 40505c <msort_with_tmp.part.0+0x12c>
  405148:	d10006a7 	sub	x7, x21, #0x1
  40514c:	aa1c03e8 	mov	x8, x28
  405150:	f9403ffa 	ldr	x26, [sp, #120]
  405154:	d343fce7 	lsr	x7, x7, #3
  405158:	aa0803e6 	mov	x6, x8
  40515c:	8b150108 	add	x8, x8, x21
  405160:	a9061be8 	stp	x8, x6, [sp, #96]
  405164:	aa1703e2 	mov	x2, x23
  405168:	aa1b03e1 	mov	x1, x27
  40516c:	f9003be7 	str	x7, [sp, #112]
  405170:	aa1a03e0 	mov	x0, x26
  405174:	d63f0300 	blr	x24
  405178:	7100001f 	cmp	w0, #0x0
  40517c:	a9461be8 	ldp	x8, x6, [sp, #96]
  405180:	f9403be7 	ldr	x7, [sp, #112]
  405184:	aa0803fc 	mov	x28, x8
  405188:	5400038d 	b.le	4051f8 <msort_with_tmp.part.0+0x2c8>
  40518c:	aa1b03e0 	mov	x0, x27
  405190:	d1000673 	sub	x19, x19, #0x1
  405194:	8b15037b 	add	x27, x27, x21
  405198:	d2800003 	mov	x3, #0x0                   	// #0
  40519c:	eb06011f 	cmp	x8, x6
  4051a0:	540000e9 	b.ls	4051bc <msort_with_tmp.part.0+0x28c>  // b.plast
  4051a4:	d503201f 	nop
  4051a8:	f8637801 	ldr	x1, [x0, x3, lsl #3]
  4051ac:	f82378c1 	str	x1, [x6, x3, lsl #3]
  4051b0:	eb0300ff 	cmp	x7, x3
  4051b4:	91000463 	add	x3, x3, #0x1
  4051b8:	54ffff81 	b.ne	4051a8 <msort_with_tmp.part.0+0x278>  // b.any
  4051bc:	f100029f 	cmp	x20, #0x0
  4051c0:	fa401a64 	ccmp	x19, #0x0, #0x4, ne  // ne = any
  4051c4:	54fffca1 	b.ne	405158 <msort_with_tmp.part.0+0x228>  // b.any
  4051c8:	cb130339 	sub	x25, x25, x19
  4051cc:	b5fff4d4 	cbnz	x20, 405064 <msort_with_tmp.part.0+0x134>
  4051d0:	9b197ea2 	mul	x2, x21, x25
  4051d4:	a94153f3 	ldp	x19, x20, [sp, #16]
  4051d8:	f94012c1 	ldr	x1, [x22, #32]
  4051dc:	a9425bf5 	ldp	x21, x22, [sp, #32]
  4051e0:	a94363f7 	ldp	x23, x24, [sp, #48]
  4051e4:	a9446bf9 	ldp	x25, x26, [sp, #64]
  4051e8:	a94573fb 	ldp	x27, x28, [sp, #80]
  4051ec:	f9403fe0 	ldr	x0, [sp, #120]
  4051f0:	a8c87bfd 	ldp	x29, x30, [sp], #128
  4051f4:	17ffec23 	b	400280 <.plt+0x10>
  4051f8:	aa1a03e0 	mov	x0, x26
  4051fc:	d1000694 	sub	x20, x20, #0x1
  405200:	8b15035a 	add	x26, x26, x21
  405204:	17ffffe5 	b	405198 <msort_with_tmp.part.0+0x268>
  405208:	d503201f 	nop
  40520c:	d503201f 	nop

0000000000405210 <__qsort_r>:
  405210:	a9b77bfd 	stp	x29, x30, [sp, #-144]!
  405214:	f100805f 	cmp	x2, #0x20
  405218:	910003fd 	mov	x29, sp
  40521c:	a90153f3 	stp	x19, x20, [sp, #16]
  405220:	8b011053 	add	x19, x2, x1, lsl #4
  405224:	aa0403f4 	mov	x20, x4
  405228:	a90363f7 	stp	x23, x24, [sp, #48]
  40522c:	aa0103f8 	mov	x24, x1
  405230:	9b027c21 	mul	x1, x1, x2
  405234:	a9025bf5 	stp	x21, x22, [sp, #32]
  405238:	aa0003f7 	mov	x23, x0
  40523c:	9a818273 	csel	x19, x19, x1, hi  // hi = pmore
  405240:	a9046bf9 	stp	x25, x26, [sp, #64]
  405244:	aa0203f5 	mov	x21, x2
  405248:	aa0303f6 	mov	x22, x3
  40524c:	a90573fb 	stp	x27, x28, [sp, #80]
  405250:	f10ffe7f 	cmp	x19, #0x3ff
  405254:	540003e8 	b.hi	4052d0 <__qsort_r+0xc0>  // b.pmore
  405258:	91003e73 	add	x19, x19, #0xf
  40525c:	d2800080 	mov	x0, #0x4                   	// #4
  405260:	927cee73 	and	x19, x19, #0xfffffffffffffff0
  405264:	a90683b5 	stp	x21, x0, [x29, #104]
  405268:	cb3363ff 	sub	sp, sp, x19
  40526c:	910003fb 	mov	x27, sp
  405270:	a907d3b6 	stp	x22, x20, [x29, #120]
  405274:	d280001a 	mov	x26, #0x0                   	// #0
  405278:	f90047bb 	str	x27, [x29, #136]
  40527c:	f10082bf 	cmp	x21, #0x20
  405280:	540005c8 	b.hi	405338 <__qsort_r+0x128>  // b.pmore
  405284:	aa1502e0 	orr	x0, x23, x21
  405288:	f240041f 	tst	x0, #0x3
  40528c:	54001120 	b.eq	4054b0 <__qsort_r+0x2a0>  // b.none
  405290:	f100071f 	cmp	x24, #0x1
  405294:	540000a9 	b.ls	4052a8 <__qsort_r+0x98>  // b.plast
  405298:	aa1803e2 	mov	x2, x24
  40529c:	aa1703e1 	mov	x1, x23
  4052a0:	9101a3a0 	add	x0, x29, #0x68
  4052a4:	97ffff23 	bl	404f30 <msort_with_tmp.part.0>
  4052a8:	aa1a03e0 	mov	x0, x26
  4052ac:	940035c5 	bl	4129c0 <__free>
  4052b0:	910003bf 	mov	sp, x29
  4052b4:	a94153f3 	ldp	x19, x20, [sp, #16]
  4052b8:	a9425bf5 	ldp	x21, x22, [sp, #32]
  4052bc:	a94363f7 	ldp	x23, x24, [sp, #48]
  4052c0:	a9446bf9 	ldp	x25, x26, [sp, #64]
  4052c4:	a94573fb 	ldp	x27, x28, [sp, #80]
  4052c8:	a8c97bfd 	ldp	x29, x30, [sp], #144
  4052cc:	d65f03c0 	ret
  4052d0:	b0000459 	adrp	x25, 48e000 <static_slotinfo+0x2b0>
  4052d4:	910c033a 	add	x26, x25, #0x300
  4052d8:	b9430320 	ldr	w0, [x25, #768]
  4052dc:	34000bc0 	cbz	w0, 405454 <__qsort_r+0x244>
  4052e0:	93407c00 	sxtw	x0, w0
  4052e4:	f9400741 	ldr	x1, [x26, #8]
  4052e8:	9ac00a60 	udiv	x0, x19, x0
  4052ec:	eb01001f 	cmp	x0, x1
  4052f0:	54000968 	b.hi	40541c <__qsort_r+0x20c>  // b.pmore
  4052f4:	d0000421 	adrp	x1, 48b000 <__FRAME_END__+0x103d8>
  4052f8:	f947c821 	ldr	x1, [x1, #3984]
  4052fc:	d53bd059 	mrs	x25, tpidr_el0
  405300:	aa1303e0 	mov	x0, x19
  405304:	aa0103f3 	mov	x19, x1
  405308:	b8616b3a 	ldr	w26, [x25, x1]
  40530c:	9400345d 	bl	412480 <__libc_malloc>
  405310:	b8336b3a 	str	w26, [x25, x19]
  405314:	aa0003fa 	mov	x26, x0
  405318:	b4000820 	cbz	x0, 40541c <__qsort_r+0x20c>
  40531c:	aa0003fb 	mov	x27, x0
  405320:	d2800080 	mov	x0, #0x4                   	// #4
  405324:	a90683b5 	stp	x21, x0, [x29, #104]
  405328:	a907d3b6 	stp	x22, x20, [x29, #120]
  40532c:	f90047bb 	str	x27, [x29, #136]
  405330:	f10082bf 	cmp	x21, #0x20
  405334:	54fffa89 	b.ls	405284 <__qsort_r+0x74>  // b.plast
  405338:	d37df302 	lsl	x2, x24, #3
  40533c:	8b02037b 	add	x27, x27, x2
  405340:	8b020379 	add	x25, x27, x2
  405344:	aa1b03e1 	mov	x1, x27
  405348:	eb19037f 	cmp	x27, x25
  40534c:	54000122 	b.cs	405370 <__qsort_r+0x160>  // b.hs, b.nlast
  405350:	aa1703e0 	mov	x0, x23
  405354:	d503201f 	nop
  405358:	f8008420 	str	x0, [x1], #8
  40535c:	8b150000 	add	x0, x0, x21
  405360:	eb01033f 	cmp	x25, x1
  405364:	54ffffa8 	b.hi	405358 <__qsort_r+0x148>  // b.pmore
  405368:	f94047a1 	ldr	x1, [x29, #136]
  40536c:	8b020021 	add	x1, x1, x2
  405370:	d2800102 	mov	x2, #0x8                   	// #8
  405374:	d2800060 	mov	x0, #0x3                   	// #3
  405378:	a90683a2 	stp	x2, x0, [x29, #104]
  40537c:	f100071f 	cmp	x24, #0x1
  405380:	54000949 	b.ls	4054a8 <__qsort_r+0x298>  // b.plast
  405384:	aa1803e2 	mov	x2, x24
  405388:	9101a3a0 	add	x0, x29, #0x68
  40538c:	97fffee9 	bl	404f30 <msort_with_tmp.part.0>
  405390:	aa1703fc 	mov	x28, x23
  405394:	d2800016 	mov	x22, #0x0                   	// #0
  405398:	14000005 	b	4053ac <__qsort_r+0x19c>
  40539c:	910006d6 	add	x22, x22, #0x1
  4053a0:	8b15039c 	add	x28, x28, x21
  4053a4:	eb16031f 	cmp	x24, x22
  4053a8:	54fff809 	b.ls	4052a8 <__qsort_r+0x98>  // b.plast
  4053ac:	f8767b73 	ldr	x19, [x27, x22, lsl #3]
  4053b0:	eb1c027f 	cmp	x19, x28
  4053b4:	54ffff40 	b.eq	40539c <__qsort_r+0x18c>  // b.none
  4053b8:	aa1503e2 	mov	x2, x21
  4053bc:	aa1c03e1 	mov	x1, x28
  4053c0:	aa1903e0 	mov	x0, x25
  4053c4:	97ffebaf 	bl	400280 <.plt+0x10>
  4053c8:	aa1603f4 	mov	x20, x22
  4053cc:	aa1c03e0 	mov	x0, x28
  4053d0:	14000002 	b	4053d8 <__qsort_r+0x1c8>
  4053d4:	aa0103f3 	mov	x19, x1
  4053d8:	cb170263 	sub	x3, x19, x23
  4053dc:	aa1403e4 	mov	x4, x20
  4053e0:	aa1503e2 	mov	x2, x21
  4053e4:	aa1303e1 	mov	x1, x19
  4053e8:	9ad50874 	udiv	x20, x3, x21
  4053ec:	f8247b60 	str	x0, [x27, x4, lsl #3]
  4053f0:	97ffeba4 	bl	400280 <.plt+0x10>
  4053f4:	aa1303e0 	mov	x0, x19
  4053f8:	f8747b61 	ldr	x1, [x27, x20, lsl #3]
  4053fc:	8b140f62 	add	x2, x27, x20, lsl #3
  405400:	eb1c003f 	cmp	x1, x28
  405404:	54fffe81 	b.ne	4053d4 <__qsort_r+0x1c4>  // b.any
  405408:	f9000053 	str	x19, [x2]
  40540c:	aa1903e1 	mov	x1, x25
  405410:	aa1503e2 	mov	x2, x21
  405414:	97ffeb9b 	bl	400280 <.plt+0x10>
  405418:	17ffffe1 	b	40539c <__qsort_r+0x18c>
  40541c:	aa1403e4 	mov	x4, x20
  405420:	aa1603e3 	mov	x3, x22
  405424:	aa1503e2 	mov	x2, x21
  405428:	aa1803e1 	mov	x1, x24
  40542c:	aa1703e0 	mov	x0, x23
  405430:	940089d8 	bl	427b90 <_quicksort>
  405434:	910003bf 	mov	sp, x29
  405438:	a94153f3 	ldp	x19, x20, [sp, #16]
  40543c:	a9425bf5 	ldp	x21, x22, [sp, #32]
  405440:	a94363f7 	ldp	x23, x24, [sp, #48]
  405444:	a9446bf9 	ldp	x25, x26, [sp, #64]
  405448:	a94573fb 	ldp	x27, x28, [sp, #80]
  40544c:	a8c97bfd 	ldp	x29, x30, [sp], #144
  405450:	d65f03c0 	ret
  405454:	52800aa0 	mov	w0, #0x55                  	// #85
  405458:	94004ace 	bl	417f90 <__sysconf>
  40545c:	92fc0001 	mov	x1, #0x1fffffffffffffff    	// #2305843009213693951
  405460:	b100041f 	cmn	x0, #0x1
  405464:	540000a0 	b.eq	405478 <__qsort_r+0x268>  // b.none
  405468:	f100001f 	cmp	x0, #0x0
  40546c:	91000c01 	add	x1, x0, #0x3
  405470:	9a80b021 	csel	x1, x1, x0, lt  // lt = tstop
  405474:	9342fc21 	asr	x1, x1, #2
  405478:	910c033a 	add	x26, x25, #0x300
  40547c:	f9000741 	str	x1, [x26, #8]
  405480:	d5033bbf 	dmb	ish
  405484:	528003c0 	mov	w0, #0x1e                  	// #30
  405488:	94004ac2 	bl	417f90 <__sysconf>
  40548c:	b9030320 	str	w0, [x25, #768]
  405490:	93407c00 	sxtw	x0, w0
  405494:	f9400741 	ldr	x1, [x26, #8]
  405498:	9ac00a60 	udiv	x0, x19, x0
  40549c:	eb01001f 	cmp	x0, x1
  4054a0:	54fff2a9 	b.ls	4052f4 <__qsort_r+0xe4>  // b.plast
  4054a4:	17ffffde 	b	40541c <__qsort_r+0x20c>
  4054a8:	b5fff758 	cbnz	x24, 405390 <__qsort_r+0x180>
  4054ac:	17ffff7f 	b	4052a8 <__qsort_r+0x98>
  4054b0:	f10012bf 	cmp	x21, #0x4
  4054b4:	540001a0 	b.eq	4054e8 <__qsort_r+0x2d8>  // b.none
  4054b8:	f10022bf 	cmp	x21, #0x8
  4054bc:	540000c0 	b.eq	4054d4 <__qsort_r+0x2c4>  // b.none
  4054c0:	f240081f 	tst	x0, #0x7
  4054c4:	54ffee61 	b.ne	405290 <__qsort_r+0x80>  // b.any
  4054c8:	d2800040 	mov	x0, #0x2                   	// #2
  4054cc:	f9003ba0 	str	x0, [x29, #112]
  4054d0:	17ffff70 	b	405290 <__qsort_r+0x80>
  4054d4:	f2400aff 	tst	x23, #0x7
  4054d8:	54ffff41 	b.ne	4054c0 <__qsort_r+0x2b0>  // b.any
  4054dc:	d2800020 	mov	x0, #0x1                   	// #1
  4054e0:	f9003ba0 	str	x0, [x29, #112]
  4054e4:	17ffff6b 	b	405290 <__qsort_r+0x80>
  4054e8:	f9003bbf 	str	xzr, [x29, #112]
  4054ec:	17ffff69 	b	405290 <__qsort_r+0x80>

00000000004054f0 <qsort>:
  4054f0:	d2800004 	mov	x4, #0x0                   	// #0
  4054f4:	17ffff47 	b	405210 <__qsort_r>
  4054f8:	d503201f 	nop
  4054fc:	d503201f 	nop

0000000000405500 <getenv>:
  405500:	a9bc7bfd 	stp	x29, x30, [sp, #-64]!
  405504:	b0000461 	adrp	x1, 492000 <__pthread_keys+0x3868>
  405508:	910003fd 	mov	x29, sp
  40550c:	a90153f3 	stp	x19, x20, [sp, #16]
  405510:	f943f834 	ldr	x20, [x1, #2032]
  405514:	b40007b4 	cbz	x20, 405608 <getenv+0x108>
  405518:	a9025bf5 	stp	x21, x22, [sp, #32]
  40551c:	aa0003f5 	mov	x21, x0
  405520:	39400001 	ldrb	w1, [x0]
  405524:	340005a1 	cbz	w1, 4055d8 <getenv+0xd8>
  405528:	39400402 	ldrb	w2, [x0, #1]
  40552c:	35000222 	cbnz	w2, 405570 <getenv+0x70>
  405530:	f9400293 	ldr	x19, [x20]
  405534:	5287a000 	mov	w0, #0x3d00                	// #15616
  405538:	2a000021 	orr	w1, w1, w0
  40553c:	b5000093 	cbnz	x19, 40554c <getenv+0x4c>
  405540:	14000027 	b	4055dc <getenv+0xdc>
  405544:	f8408e93 	ldr	x19, [x20, #8]!
  405548:	b40004b3 	cbz	x19, 4055dc <getenv+0xdc>
  40554c:	79400260 	ldrh	w0, [x19]
  405550:	6b01001f 	cmp	w0, w1
  405554:	54ffff81 	b.ne	405544 <getenv+0x44>  // b.any
  405558:	91000a73 	add	x19, x19, #0x2
  40555c:	aa1303e0 	mov	x0, x19
  405560:	a94153f3 	ldp	x19, x20, [sp, #16]
  405564:	a9425bf5 	ldp	x21, x22, [sp, #32]
  405568:	a8c47bfd 	ldp	x29, x30, [sp], #64
  40556c:	d65f03c0 	ret
  405570:	a90363f7 	stp	x23, x24, [sp, #48]
  405574:	97ffeb57 	bl	4002d0 <.plt+0x60>
  405578:	784026b6 	ldrh	w22, [x21], #2
  40557c:	f9400293 	ldr	x19, [x20]
  405580:	aa0003f7 	mov	x23, x0
  405584:	d1000818 	sub	x24, x0, #0x2
  405588:	b5000093 	cbnz	x19, 405598 <getenv+0x98>
  40558c:	14000019 	b	4055f0 <getenv+0xf0>
  405590:	f8408e93 	ldr	x19, [x20, #8]!
  405594:	b40002f3 	cbz	x19, 4055f0 <getenv+0xf0>
  405598:	79400263 	ldrh	w3, [x19]
  40559c:	6b16007f 	cmp	w3, w22
  4055a0:	54ffff81 	b.ne	405590 <getenv+0x90>  // b.any
  4055a4:	aa1803e2 	mov	x2, x24
  4055a8:	aa1503e1 	mov	x1, x21
  4055ac:	91000a60 	add	x0, x19, #0x2
  4055b0:	94003b1d 	bl	414224 <strncmp>
  4055b4:	35fffee0 	cbnz	w0, 405590 <getenv+0x90>
  4055b8:	38776a60 	ldrb	w0, [x19, x23]
  4055bc:	7100f41f 	cmp	w0, #0x3d
  4055c0:	54fffe81 	b.ne	405590 <getenv+0x90>  // b.any
  4055c4:	910006f7 	add	x23, x23, #0x1
  4055c8:	8b170273 	add	x19, x19, x23
  4055cc:	a9425bf5 	ldp	x21, x22, [sp, #32]
  4055d0:	a94363f7 	ldp	x23, x24, [sp, #48]
  4055d4:	14000003 	b	4055e0 <getenv+0xe0>
  4055d8:	d2800013 	mov	x19, #0x0                   	// #0
  4055dc:	a9425bf5 	ldp	x21, x22, [sp, #32]
  4055e0:	aa1303e0 	mov	x0, x19
  4055e4:	a94153f3 	ldp	x19, x20, [sp, #16]
  4055e8:	a8c47bfd 	ldp	x29, x30, [sp], #64
  4055ec:	d65f03c0 	ret
  4055f0:	aa1303e0 	mov	x0, x19
  4055f4:	a94153f3 	ldp	x19, x20, [sp, #16]
  4055f8:	a9425bf5 	ldp	x21, x22, [sp, #32]
  4055fc:	a94363f7 	ldp	x23, x24, [sp, #48]
  405600:	a8c47bfd 	ldp	x29, x30, [sp], #64
  405604:	d65f03c0 	ret
  405608:	d2800013 	mov	x19, #0x0                   	// #0
  40560c:	17fffff5 	b	4055e0 <getenv+0xe0>

0000000000405610 <__run_exit_handlers>:
  405610:	a9ba7bfd 	stp	x29, x30, [sp, #-96]!
  405614:	d0000264 	adrp	x4, 453000 <cpu_list+0x98>
  405618:	12001c63 	and	w3, w3, #0xff
  40561c:	910003fd 	mov	x29, sp
  405620:	f9425484 	ldr	x4, [x4, #1192]
  405624:	a90153f3 	stp	x19, x20, [sp, #16]
  405628:	a9025bf5 	stp	x21, x22, [sp, #32]
  40562c:	f100009f 	cmp	x4, #0x0
  405630:	7a401864 	ccmp	w3, #0x0, #0x4, ne  // ne = any
  405634:	a90363f7 	stp	x23, x24, [sp, #48]
  405638:	2a0003f7 	mov	w23, w0
  40563c:	aa0103f8 	mov	x24, x1
  405640:	a9046bf9 	stp	x25, x26, [sp, #64]
  405644:	12001c59 	and	w25, w2, #0xff
  405648:	f9002bfb 	str	x27, [sp, #80]
  40564c:	54000e21 	b.ne	405810 <__run_exit_handlers+0x200>  // b.any
  405650:	b0000454 	adrp	x20, 48e000 <static_slotinfo+0x2b0>
  405654:	910c8294 	add	x20, x20, #0x320
  405658:	aa1403e2 	mov	x2, x20
  40565c:	52800021 	mov	w1, #0x1                   	// #1
  405660:	52800000 	mov	w0, #0x0                   	// #0
  405664:	94011daf 	bl	44cd20 <__aarch64_cas4_acq>
  405668:	35000de0 	cbnz	w0, 405824 <__run_exit_handlers+0x214>
  40566c:	d0000436 	adrp	x22, 48b000 <__FRAME_END__+0x103d8>
  405670:	f9400313 	ldr	x19, [x24]
  405674:	b4000893 	cbz	x19, 405784 <__run_exit_handlers+0x174>
  405678:	91004275 	add	x21, x19, #0x10
  40567c:	d503201f 	nop
  405680:	f9400662 	ldr	x2, [x19, #8]
  405684:	b40007a2 	cbz	x2, 405778 <__run_exit_handlers+0x168>
  405688:	d1000442 	sub	x2, x2, #0x1
  40568c:	f9000662 	str	x2, [x19, #8]
  405690:	d37be843 	lsl	x3, x2, #5
  405694:	f8636aa0 	ldr	x0, [x21, x3]
  405698:	f1000c1f 	cmp	x0, #0x3
  40569c:	54000500 	b.eq	40573c <__run_exit_handlers+0x12c>  // b.none
  4056a0:	f100101f 	cmp	x0, #0x4
  4056a4:	54000300 	b.eq	405704 <__run_exit_handlers+0xf4>  // b.none
  4056a8:	f100081f 	cmp	x0, #0x2
  4056ac:	54fffec1 	b.ne	405684 <__run_exit_handlers+0x74>  // b.any
  4056b0:	8b030263 	add	x3, x19, x3
  4056b4:	aa1403e1 	mov	x1, x20
  4056b8:	f941fac2 	ldr	x2, [x22, #1008]
  4056bc:	52800000 	mov	w0, #0x0                   	// #0
  4056c0:	a941ec7a 	ldp	x26, x27, [x3, #24]
  4056c4:	ca02035a 	eor	x26, x26, x2
  4056c8:	94011e2a 	bl	44cf70 <__aarch64_swp4_rel>
  4056cc:	7100041f 	cmp	w0, #0x1
  4056d0:	540008ec 	b.gt	4057ec <__run_exit_handlers+0x1dc>
  4056d4:	aa1b03e1 	mov	x1, x27
  4056d8:	2a1703e0 	mov	w0, w23
  4056dc:	d63f0340 	blr	x26
  4056e0:	aa1403e2 	mov	x2, x20
  4056e4:	52800021 	mov	w1, #0x1                   	// #1
  4056e8:	52800000 	mov	w0, #0x0                   	// #0
  4056ec:	94011d8d 	bl	44cd20 <__aarch64_cas4_acq>
  4056f0:	34fffc80 	cbz	w0, 405680 <__run_exit_handlers+0x70>
  4056f4:	aa1403e0 	mov	x0, x20
  4056f8:	940020e6 	bl	40da90 <__lll_lock_wait_private>
  4056fc:	f9400662 	ldr	x2, [x19, #8]
  405700:	17ffffe1 	b	405684 <__run_exit_handlers+0x74>
  405704:	8b030263 	add	x3, x19, x3
  405708:	aa1403e1 	mov	x1, x20
  40570c:	f941fac2 	ldr	x2, [x22, #1008]
  405710:	52800000 	mov	w0, #0x0                   	// #0
  405714:	a941ec7a 	ldp	x26, x27, [x3, #24]
  405718:	f900087f 	str	xzr, [x3, #16]
  40571c:	ca02035a 	eor	x26, x26, x2
  405720:	94011e14 	bl	44cf70 <__aarch64_swp4_rel>
  405724:	7100041f 	cmp	w0, #0x1
  405728:	5400068c 	b.gt	4057f8 <__run_exit_handlers+0x1e8>
  40572c:	aa1b03e0 	mov	x0, x27
  405730:	2a1703e1 	mov	w1, w23
  405734:	d63f0340 	blr	x26
  405738:	17ffffea 	b	4056e0 <__run_exit_handlers+0xd0>
  40573c:	8b030263 	add	x3, x19, x3
  405740:	aa1403e1 	mov	x1, x20
  405744:	f941fac2 	ldr	x2, [x22, #1008]
  405748:	52800000 	mov	w0, #0x0                   	// #0
  40574c:	f9400c7a 	ldr	x26, [x3, #24]
  405750:	ca02035a 	eor	x26, x26, x2
  405754:	94011e07 	bl	44cf70 <__aarch64_swp4_rel>
  405758:	7100041f 	cmp	w0, #0x1
  40575c:	5400006c 	b.gt	405768 <__run_exit_handlers+0x158>
  405760:	d63f0340 	blr	x26
  405764:	17ffffdf 	b	4056e0 <__run_exit_handlers+0xd0>
  405768:	aa1403e0 	mov	x0, x20
  40576c:	9400210a 	bl	40db94 <__lll_lock_wake_private>
  405770:	d63f0340 	blr	x26
  405774:	17ffffdb 	b	4056e0 <__run_exit_handlers+0xd0>
  405778:	f9400260 	ldr	x0, [x19]
  40577c:	f9000300 	str	x0, [x24]
  405780:	b5000420 	cbnz	x0, 405804 <__run_exit_handlers+0x1f4>
  405784:	b0000442 	adrp	x2, 48e000 <static_slotinfo+0x2b0>
  405788:	52800023 	mov	w3, #0x1                   	// #1
  40578c:	aa1403e1 	mov	x1, x20
  405790:	52800000 	mov	w0, #0x0                   	// #0
  405794:	390c4043 	strb	w3, [x2, #784]
  405798:	94011df6 	bl	44cf70 <__aarch64_swp4_rel>
  40579c:	7100041f 	cmp	w0, #0x1
  4057a0:	540003cc 	b.gt	405818 <__run_exit_handlers+0x208>
  4057a4:	34000219 	cbz	w25, 4057e4 <__run_exit_handlers+0x1d4>
  4057a8:	d0000261 	adrp	x1, 453000 <cpu_list+0x98>
  4057ac:	d0000260 	adrp	x0, 453000 <cpu_list+0x98>
  4057b0:	f9425835 	ldr	x21, [x1, #1200]
  4057b4:	f9425c00 	ldr	x0, [x0, #1208]
  4057b8:	eb0002bf 	cmp	x21, x0
  4057bc:	54000142 	b.cs	4057e4 <__run_exit_handlers+0x1d4>  // b.hs, b.nlast
  4057c0:	d1000414 	sub	x20, x0, #0x1
  4057c4:	d2800013 	mov	x19, #0x0                   	// #0
  4057c8:	cb150294 	sub	x20, x20, x21
  4057cc:	d343fe94 	lsr	x20, x20, #3
  4057d0:	f8737aa0 	ldr	x0, [x21, x19, lsl #3]
  4057d4:	d63f0000 	blr	x0
  4057d8:	eb14027f 	cmp	x19, x20
  4057dc:	91000673 	add	x19, x19, #0x1
  4057e0:	54ffff81 	b.ne	4057d0 <__run_exit_handlers+0x1c0>  // b.any
  4057e4:	2a1703e0 	mov	w0, w23
  4057e8:	940049c2 	bl	417ef0 <_exit>
  4057ec:	aa1403e0 	mov	x0, x20
  4057f0:	940020e9 	bl	40db94 <__lll_lock_wake_private>
  4057f4:	17ffffb8 	b	4056d4 <__run_exit_handlers+0xc4>
  4057f8:	aa1403e0 	mov	x0, x20
  4057fc:	940020e6 	bl	40db94 <__lll_lock_wake_private>
  405800:	17ffffcb 	b	40572c <__run_exit_handlers+0x11c>
  405804:	aa1303e0 	mov	x0, x19
  405808:	9400346e 	bl	4129c0 <__free>
  40580c:	17ffff99 	b	405670 <__run_exit_handlers+0x60>
  405810:	d503201f 	nop
  405814:	17ffff8f 	b	405650 <__run_exit_handlers+0x40>
  405818:	aa1403e0 	mov	x0, x20
  40581c:	940020de 	bl	40db94 <__lll_lock_wake_private>
  405820:	17ffffe1 	b	4057a4 <__run_exit_handlers+0x194>
  405824:	aa1403e0 	mov	x0, x20
  405828:	9400209a 	bl	40da90 <__lll_lock_wait_private>
  40582c:	17ffff90 	b	40566c <__run_exit_handlers+0x5c>

0000000000405830 <exit>:
  405830:	a9bf7bfd 	stp	x29, x30, [sp, #-16]!
  405834:	f0000421 	adrp	x1, 48c000 <.got.plt+0x18>
  405838:	52800023 	mov	w3, #0x1                   	// #1
  40583c:	910003fd 	mov	x29, sp
  405840:	91014021 	add	x1, x1, #0x50
  405844:	2a0303e2 	mov	w2, w3
  405848:	97ffff72 	bl	405610 <__run_exit_handlers>
  40584c:	d503201f 	nop

0000000000405850 <__new_exitfn>:
  405850:	a9be7bfd 	stp	x29, x30, [sp, #-32]!
  405854:	b0000441 	adrp	x1, 48e000 <static_slotinfo+0x2b0>
  405858:	910003fd 	mov	x29, sp
  40585c:	a90153f3 	stp	x19, x20, [sp, #16]
  405860:	aa0003f3 	mov	x19, x0
  405864:	394c4020 	ldrb	w0, [x1, #784]
  405868:	35000640 	cbnz	w0, 405930 <__new_exitfn+0xe0>
  40586c:	f9400274 	ldr	x20, [x19]
  405870:	b4000694 	cbz	x20, 405940 <__new_exitfn+0xf0>
  405874:	aa1403e5 	mov	x5, x20
  405878:	d2800006 	mov	x6, #0x0                   	// #0
  40587c:	d503201f 	nop
  405880:	f94004a1 	ldr	x1, [x5, #8]
  405884:	910040a4 	add	x4, x5, #0x10
  405888:	b4000101 	cbz	x1, 4058a8 <__new_exitfn+0x58>
  40588c:	d503201f 	nop
  405890:	d1000422 	sub	x2, x1, #0x1
  405894:	d37be843 	lsl	x3, x2, #5
  405898:	f8636883 	ldr	x3, [x4, x3]
  40589c:	b5000123 	cbnz	x3, 4058c0 <__new_exitfn+0x70>
  4058a0:	aa0203e1 	mov	x1, x2
  4058a4:	b5ffff61 	cbnz	x1, 405890 <__new_exitfn+0x40>
  4058a8:	f94000a1 	ldr	x1, [x5]
  4058ac:	f90004bf 	str	xzr, [x5, #8]
  4058b0:	aa0503e6 	mov	x6, x5
  4058b4:	b4000361 	cbz	x1, 405920 <__new_exitfn+0xd0>
  4058b8:	aa0103e5 	mov	x5, x1
  4058bc:	17fffff1 	b	405880 <__new_exitfn+0x30>
  4058c0:	f100803f 	cmp	x1, #0x20
  4058c4:	540001c0 	b.eq	4058fc <__new_exitfn+0xac>  // b.none
  4058c8:	8b0114a0 	add	x0, x5, x1, lsl #5
  4058cc:	91000421 	add	x1, x1, #0x1
  4058d0:	91004000 	add	x0, x0, #0x10
  4058d4:	f90004a1 	str	x1, [x5, #8]
  4058d8:	b0000442 	adrp	x2, 48e000 <static_slotinfo+0x2b0>
  4058dc:	d2800021 	mov	x1, #0x1                   	// #1
  4058e0:	f9000001 	str	x1, [x0]
  4058e4:	f9418c41 	ldr	x1, [x2, #792]
  4058e8:	a94153f3 	ldp	x19, x20, [sp, #16]
  4058ec:	91000421 	add	x1, x1, #0x1
  4058f0:	a8c27bfd 	ldp	x29, x30, [sp], #32
  4058f4:	f9018c41 	str	x1, [x2, #792]
  4058f8:	d65f03c0 	ret
  4058fc:	aa0603e5 	mov	x5, x6
  405900:	b5000106 	cbnz	x6, 405920 <__new_exitfn+0xd0>
  405904:	d2808201 	mov	x1, #0x410                 	// #1040
  405908:	d2800020 	mov	x0, #0x1                   	// #1
  40590c:	94003612 	bl	413154 <__calloc>
  405910:	aa0003e5 	mov	x5, x0
  405914:	b40000e0 	cbz	x0, 405930 <__new_exitfn+0xe0>
  405918:	f90000b4 	str	x20, [x5]
  40591c:	f9000265 	str	x5, [x19]
  405920:	d2800021 	mov	x1, #0x1                   	// #1
  405924:	910040a0 	add	x0, x5, #0x10
  405928:	f90004a1 	str	x1, [x5, #8]
  40592c:	17ffffeb 	b	4058d8 <__new_exitfn+0x88>
  405930:	d2800000 	mov	x0, #0x0                   	// #0
  405934:	a94153f3 	ldp	x19, x20, [sp, #16]
  405938:	a8c27bfd 	ldp	x29, x30, [sp], #32
  40593c:	d65f03c0 	ret
  405940:	d0000263 	adrp	x3, 453000 <cpu_list+0x98>
  405944:	d0000261 	adrp	x1, 453000 <cpu_list+0x98>
  405948:	d0000260 	adrp	x0, 453000 <cpu_list+0x98>
  40594c:	9113c063 	add	x3, x3, #0x4f0
  405950:	91130021 	add	x1, x1, #0x4c0
  405954:	91134000 	add	x0, x0, #0x4d0
  405958:	52800e02 	mov	w2, #0x70                  	// #112
  40595c:	97ffed72 	bl	400f24 <__assert_fail>

0000000000405960 <__internal_atexit>:
  405960:	a9bc7bfd 	stp	x29, x30, [sp, #-64]!
  405964:	910003fd 	mov	x29, sp
  405968:	a90153f3 	stp	x19, x20, [sp, #16]
  40596c:	a9025bf5 	stp	x21, x22, [sp, #32]
  405970:	a90363f7 	stp	x23, x24, [sp, #48]
  405974:	b4000600 	cbz	x0, 405a34 <__internal_atexit+0xd4>
  405978:	b0000453 	adrp	x19, 48e000 <static_slotinfo+0x2b0>
  40597c:	910c6273 	add	x19, x19, #0x318
  405980:	91002278 	add	x24, x19, #0x8
  405984:	aa0003f4 	mov	x20, x0
  405988:	aa0103f7 	mov	x23, x1
  40598c:	aa0203f6 	mov	x22, x2
  405990:	aa0303f5 	mov	x21, x3
  405994:	aa1803e2 	mov	x2, x24
  405998:	52800021 	mov	w1, #0x1                   	// #1
  40599c:	52800000 	mov	w0, #0x0                   	// #0
  4059a0:	94011ce0 	bl	44cd20 <__aarch64_cas4_acq>
  4059a4:	350002e0 	cbnz	w0, 405a00 <__internal_atexit+0xa0>
  4059a8:	aa1503e0 	mov	x0, x21
  4059ac:	97ffffa9 	bl	405850 <__new_exitfn>
  4059b0:	b40002e0 	cbz	x0, 405a0c <__internal_atexit+0xac>
  4059b4:	d0000422 	adrp	x2, 48b000 <__FRAME_END__+0x103d8>
  4059b8:	d2800081 	mov	x1, #0x4                   	// #4
  4059bc:	a9015817 	stp	x23, x22, [x0, #16]
  4059c0:	91002273 	add	x19, x19, #0x8
  4059c4:	f941f842 	ldr	x2, [x2, #1008]
  4059c8:	ca020294 	eor	x20, x20, x2
  4059cc:	a9005001 	stp	x1, x20, [x0]
  4059d0:	aa1303e1 	mov	x1, x19
  4059d4:	52800000 	mov	w0, #0x0                   	// #0
  4059d8:	52800014 	mov	w20, #0x0                   	// #0
  4059dc:	94011d65 	bl	44cf70 <__aarch64_swp4_rel>
  4059e0:	7100041f 	cmp	w0, #0x1
  4059e4:	5400022c 	b.gt	405a28 <__internal_atexit+0xc8>
  4059e8:	2a1403e0 	mov	w0, w20
  4059ec:	a94153f3 	ldp	x19, x20, [sp, #16]
  4059f0:	a9425bf5 	ldp	x21, x22, [sp, #32]
  4059f4:	a94363f7 	ldp	x23, x24, [sp, #48]
  4059f8:	a8c47bfd 	ldp	x29, x30, [sp], #64
  4059fc:	d65f03c0 	ret
  405a00:	aa1803e0 	mov	x0, x24
  405a04:	94002023 	bl	40da90 <__lll_lock_wait_private>
  405a08:	17ffffe8 	b	4059a8 <__internal_atexit+0x48>
  405a0c:	91002273 	add	x19, x19, #0x8
  405a10:	12800014 	mov	w20, #0xffffffff            	// #-1
  405a14:	aa1303e1 	mov	x1, x19
  405a18:	94011d56 	bl	44cf70 <__aarch64_swp4_rel>
  405a1c:	7100041f 	cmp	w0, #0x1
  405a20:	54fffe4d 	b.le	4059e8 <__internal_atexit+0x88>
  405a24:	d503201f 	nop
  405a28:	aa1303e0 	mov	x0, x19
  405a2c:	9400205a 	bl	40db94 <__lll_lock_wake_private>
  405a30:	17ffffee 	b	4059e8 <__internal_atexit+0x88>
  405a34:	d0000263 	adrp	x3, 453000 <cpu_list+0x98>
  405a38:	d0000261 	adrp	x1, 453000 <cpu_list+0x98>
  405a3c:	d0000260 	adrp	x0, 453000 <cpu_list+0x98>
  405a40:	91140063 	add	x3, x3, #0x500
  405a44:	91130021 	add	x1, x1, #0x4c0
  405a48:	91138000 	add	x0, x0, #0x4e0
  405a4c:	52800522 	mov	w2, #0x29                  	// #41
  405a50:	97ffed35 	bl	400f24 <__assert_fail>

0000000000405a54 <__cxa_atexit>:
  405a54:	f0000423 	adrp	x3, 48c000 <.got.plt+0x18>
  405a58:	91014063 	add	x3, x3, #0x50
  405a5c:	17ffffc1 	b	405960 <__internal_atexit>

0000000000405a60 <__strtoul_internal>:
  405a60:	d0000424 	adrp	x4, 48b000 <__FRAME_END__+0x103d8>
  405a64:	f947dc84 	ldr	x4, [x4, #4024]
  405a68:	d53bd045 	mrs	x5, tpidr_el0
  405a6c:	f86468a4 	ldr	x4, [x5, x4]
  405a70:	14000008 	b	405a90 <____strtoul_l_internal>

0000000000405a74 <__strtoul>:
  405a74:	d0000424 	adrp	x4, 48b000 <__FRAME_END__+0x103d8>
  405a78:	f947dc84 	ldr	x4, [x4, #4024]
  405a7c:	d53bd045 	mrs	x5, tpidr_el0
  405a80:	52800003 	mov	w3, #0x0                   	// #0
  405a84:	f86468a4 	ldr	x4, [x5, x4]
  405a88:	14000002 	b	405a90 <____strtoul_l_internal>
  405a8c:	d503201f 	nop

0000000000405a90 <____strtoul_l_internal>:
  405a90:	a9bb7bfd 	stp	x29, x30, [sp, #-80]!
  405a94:	910003fd 	mov	x29, sp
  405a98:	a9025bf5 	stp	x21, x22, [sp, #32]
  405a9c:	d2800016 	mov	x22, #0x0                   	// #0
  405aa0:	a90363f7 	stp	x23, x24, [sp, #48]
  405aa4:	aa0003f8 	mov	x24, x0
  405aa8:	d2800017 	mov	x23, #0x0                   	// #0
  405aac:	a9046bf9 	stp	x25, x26, [sp, #64]
  405ab0:	aa0103f9 	mov	x25, x1
  405ab4:	f9400480 	ldr	x0, [x4, #8]
  405ab8:	35001283 	cbnz	w3, 405d08 <____strtoul_l_internal+0x278>
  405abc:	7100905f 	cmp	w2, #0x24
  405ac0:	7a419844 	ccmp	w2, #0x1, #0x4, ls  // ls = plast
  405ac4:	54000181 	b.ne	405af4 <____strtoul_l_internal+0x64>  // b.any
  405ac8:	d0000421 	adrp	x1, 48b000 <__FRAME_END__+0x103d8>
  405acc:	f947c821 	ldr	x1, [x1, #3984]
  405ad0:	d53bd042 	mrs	x2, tpidr_el0
  405ad4:	528002c3 	mov	w3, #0x16                  	// #22
  405ad8:	d2800000 	mov	x0, #0x0                   	// #0
  405adc:	b8216843 	str	w3, [x2, x1]
